; ModuleID = './LabTest.cpp'
source_filename = "./LabTest.cpp"
target datalayout = "e-m:o-i64:64-f80:128-n8:16:32:64-S128"
target triple = "x86_64-apple-macosx10.10.0"

%"class.testing::TestInfo" = type { %"class.std::__1::basic_string", %"class.std::__1::basic_string", %"class.testing::internal::scoped_ptr", %"class.testing::internal::scoped_ptr", i8*, i8, i8, i8, %"class.testing::internal::TestFactoryBase"*, %"class.testing::TestResult" }
%"class.std::__1::basic_string" = type { %"class.std::__1::__compressed_pair" }
%"class.std::__1::__compressed_pair" = type { %"class.std::__1::__libcpp_compressed_pair_imp" }
%"class.std::__1::__libcpp_compressed_pair_imp" = type { %"struct.std::__1::basic_string<char, std::__1::char_traits<char>, std::__1::allocator<char> >::__rep" }
%"struct.std::__1::basic_string<char, std::__1::char_traits<char>, std::__1::allocator<char> >::__rep" = type { %union.anon }
%union.anon = type { %"struct.std::__1::basic_string<char, std::__1::char_traits<char>, std::__1::allocator<char> >::__long" }
%"struct.std::__1::basic_string<char, std::__1::char_traits<char>, std::__1::allocator<char> >::__long" = type { i64, i64, i8* }
%"class.testing::internal::scoped_ptr" = type { %"class.std::__1::basic_string"* }
%"class.testing::internal::TestFactoryBase" = type { i32 (...)** }
%"class.testing::TestResult" = type { %"class.testing::internal::Mutex", %"class.std::__1::vector", %"class.std::__1::vector.5", i32, i64 }
%"class.testing::internal::Mutex" = type { %"class.testing::internal::MutexBase" }
%"class.testing::internal::MutexBase" = type { %struct._opaque_pthread_mutex_t, %struct._opaque_pthread_t* }
%struct._opaque_pthread_mutex_t = type { i64, [56 x i8] }
%struct._opaque_pthread_t = type { i64, %struct.__darwin_pthread_handler_rec*, [8176 x i8] }
%struct.__darwin_pthread_handler_rec = type { void (i8*)*, i8*, %struct.__darwin_pthread_handler_rec* }
%"class.std::__1::vector" = type { %"class.std::__1::__vector_base" }
%"class.std::__1::__vector_base" = type { %"class.testing::TestPartResult"*, %"class.testing::TestPartResult"*, %"class.std::__1::__compressed_pair.1" }
%"class.testing::TestPartResult" = type { i32, %"class.testing::internal::String", i32, %"class.testing::internal::String", %"class.testing::internal::String" }
%"class.testing::internal::String" = type { i8*, i64 }
%"class.std::__1::__compressed_pair.1" = type { %"class.std::__1::__libcpp_compressed_pair_imp.2" }
%"class.std::__1::__libcpp_compressed_pair_imp.2" = type { %"class.testing::TestPartResult"* }
%"class.std::__1::vector.5" = type { %"class.std::__1::__vector_base.6" }
%"class.std::__1::__vector_base.6" = type { %"class.testing::TestProperty"*, %"class.testing::TestProperty"*, %"class.std::__1::__compressed_pair.7" }
%"class.testing::TestProperty" = type { %"class.testing::internal::String", %"class.testing::internal::String" }
%"class.std::__1::__compressed_pair.7" = type { %"class.std::__1::__libcpp_compressed_pair_imp.8" }
%"class.std::__1::__libcpp_compressed_pair_imp.8" = type { %"class.testing::TestProperty"* }
%"class.testing::internal::TestFactoryImpl" = type { %"class.testing::internal::TestFactoryBase" }
%class.Hello_sup_Test = type { %"class.testing::Test" }
%"class.testing::Test" = type { i32 (...)**, %"class.testing::internal::GTestFlagSaver"* }
%"class.testing::internal::GTestFlagSaver" = type opaque
%class.LabTestee = type { i8 }
%"class.testing::AssertionResult" = type { i8, %"class.testing::internal::scoped_ptr.11" }
%"class.testing::internal::scoped_ptr.11" = type { %"class.std::__1::basic_string"* }
%"class.testing::internal::AssertHelper" = type { %"struct.testing::internal::AssertHelper::AssertHelperData"* }
%"struct.testing::internal::AssertHelper::AssertHelperData" = type { i32, i8*, i32, %"class.testing::internal::String" }
%"class.testing::Message" = type { %"class.testing::internal::scoped_ptr.12" }
%"class.testing::internal::scoped_ptr.12" = type { %"class.std::__1::basic_stringstream"* }
%"class.std::__1::basic_stringstream" = type { %"class.std::__1::basic_iostream.base", %"class.std::__1::basic_stringbuf", %"class.std::__1::basic_ios.base" }
%"class.std::__1::basic_iostream.base" = type { %"class.std::__1::basic_istream.base", %"class.std::__1::basic_ostream.base" }
%"class.std::__1::basic_istream.base" = type { i32 (...)**, i64 }
%"class.std::__1::basic_ostream.base" = type { i32 (...)** }
%"class.std::__1::basic_stringbuf" = type <{ %"class.std::__1::basic_streambuf", %"class.std::__1::basic_string", i8*, i32, [4 x i8] }>
%"class.std::__1::basic_streambuf" = type { i32 (...)**, %"class.std::__1::locale", i8*, i8*, i8*, i8*, i8*, i8* }
%"class.std::__1::locale" = type { %"class.std::__1::locale::__imp"* }
%"class.std::__1::locale::__imp" = type opaque
%"class.std::__1::basic_ios.base" = type <{ %"class.std::__1::ios_base", %"class.std::__1::basic_ostream"*, i32 }>
%"class.std::__1::ios_base" = type { i32 (...)**, i32, i64, i64, i32, i32, i8*, i8*, void (i32, %"class.std::__1::ios_base"*, i32)**, i32*, i64, i64, i64*, i64, i64, i8**, i64, i64 }
%"class.std::__1::basic_ostream" = type { i32 (...)**, %"class.std::__1::basic_ios.base" }
%"struct.testing::Test::Setup_should_be_spelled_SetUp" = type { i8 }
%"struct.std::__1::basic_string<char, std::__1::char_traits<char>, std::__1::allocator<char> >::__short" = type { %union.anon.0, [23 x i8] }
%union.anon.0 = type { i8 }
%"class.std::__1::__iom_t5" = type { i32 }
%"class.std::__1::basic_ios" = type <{ %"class.std::__1::ios_base", %"class.std::__1::basic_ostream"*, i32, [4 x i8] }>
%"class.std::__1::basic_istream" = type { i32 (...)**, i64, %"class.std::__1::basic_ios.base" }
%"class.std::__1::basic_iostream" = type { %"class.std::__1::basic_istream.base", %"class.std::__1::basic_ostream.base", %"class.std::__1::basic_ios.base" }
%"class.std::__1::allocator" = type { i8 }
%"class.std::__1::__basic_string_common" = type { i8 }
%"struct.std::__1::basic_string<char, std::__1::char_traits<char>, std::__1::allocator<char> >::__raw" = type { [3 x i64] }
%"class.std::__1::fpos" = type { %union.__mbstate_t, i64 }
%union.__mbstate_t = type { i64, [120 x i8] }
%"struct.std::__1::__less" = type { i8 }
%"struct.testing::internal::bool_constant" = type { i8 }
%"struct.testing::internal::is_pointer" = type { i8 }
%"struct.std::__1::__has_max_size" = type { i8 }
%"struct.std::__1::random_access_iterator_tag" = type { i8 }
%"struct.std::__1::integral_constant" = type { i8 }

@_ZN14Hello_sup_Test10test_info_E = global %"class.testing::TestInfo"* null, align 8
@.str = private unnamed_addr constant [6 x i8] c"Hello\00", align 1
@.str.1 = private unnamed_addr constant [4 x i8] c"sup\00", align 1
@.str.2 = private unnamed_addr constant [7 x i8] c"result\00", align 1
@.str.3 = private unnamed_addr constant [2 x i8] c"1\00", align 1
@.str.4 = private unnamed_addr constant [14 x i8] c"./LabTest.cpp\00", align 1
@_ZTV14Hello_sup_Test = unnamed_addr constant [8 x i8*] [i8* null, i8* bitcast ({ i8*, i8*, i8* }* @_ZTI14Hello_sup_Test to i8*), i8* bitcast (void (%class.Hello_sup_Test*)* @_ZN14Hello_sup_TestD1Ev to i8*), i8* bitcast (void (%class.Hello_sup_Test*)* @_ZN14Hello_sup_TestD0Ev to i8*), i8* bitcast (void (%"class.testing::Test"*)* @_ZN7testing4Test5SetUpEv to i8*), i8* bitcast (void (%"class.testing::Test"*)* @_ZN7testing4Test8TearDownEv to i8*), i8* bitcast (void (%class.Hello_sup_Test*)* @_ZN14Hello_sup_Test8TestBodyEv to i8*), i8* bitcast (%"struct.testing::Test::Setup_should_be_spelled_SetUp"* (%"class.testing::Test"*)* @_ZN7testing4Test5SetupEv to i8*)], align 8
@_ZTVN10__cxxabiv120__si_class_type_infoE = external global i8*
@_ZTS14Hello_sup_Test = constant [17 x i8] c"14Hello_sup_Test\00"
@_ZTIN7testing4TestE = external constant i8*
@_ZTI14Hello_sup_Test = constant { i8*, i8*, i8* } { i8* bitcast (i8** getelementptr inbounds (i8*, i8** @_ZTVN10__cxxabiv120__si_class_type_infoE, i64 2) to i8*), i8* getelementptr inbounds ([17 x i8], [17 x i8]* @_ZTS14Hello_sup_Test, i32 0, i32 0), i8* bitcast (i8** @_ZTIN7testing4TestE to i8*) }
@_ZTVN7testing8internal15TestFactoryImplI14Hello_sup_TestEE = linkonce_odr unnamed_addr constant [5 x i8*] [i8* null, i8* bitcast ({ i8*, i8*, i8* }* @_ZTIN7testing8internal15TestFactoryImplI14Hello_sup_TestEE to i8*), i8* bitcast (void (%"class.testing::internal::TestFactoryImpl"*)* @_ZN7testing8internal15TestFactoryImplI14Hello_sup_TestED1Ev to i8*), i8* bitcast (void (%"class.testing::internal::TestFactoryImpl"*)* @_ZN7testing8internal15TestFactoryImplI14Hello_sup_TestED0Ev to i8*), i8* bitcast (%"class.testing::Test"* (%"class.testing::internal::TestFactoryImpl"*)* @_ZN7testing8internal15TestFactoryImplI14Hello_sup_TestE10CreateTestEv to i8*)], align 8
@_ZTSN7testing8internal15TestFactoryImplI14Hello_sup_TestEE = linkonce_odr constant [55 x i8] c"N7testing8internal15TestFactoryImplI14Hello_sup_TestEE\00"
@_ZTIN7testing8internal15TestFactoryBaseE = external constant i8*
@_ZTIN7testing8internal15TestFactoryImplI14Hello_sup_TestEE = linkonce_odr constant { i8*, i8*, i8* } { i8* bitcast (i8** getelementptr inbounds (i8*, i8** @_ZTVN10__cxxabiv120__si_class_type_infoE, i64 2) to i8*), i8* getelementptr inbounds ([55 x i8], [55 x i8]* @_ZTSN7testing8internal15TestFactoryImplI14Hello_sup_TestEE, i32 0, i32 0), i8* bitcast (i8** @_ZTIN7testing8internal15TestFactoryBaseE to i8*) }
@_ZTVN7testing8internal15TestFactoryBaseE = external unnamed_addr constant [5 x i8*]
@.str.5 = private unnamed_addr constant [1 x i8] zeroinitializer, align 1
@_ZTVNSt3__118basic_stringstreamIcNS_11char_traitsIcEENS_9allocatorIcEEEE = linkonce_odr unnamed_addr constant [15 x i8*] [i8* inttoptr (i64 128 to i8*), i8* null, i8* bitcast ({ i8*, i8*, i8* }* @_ZTINSt3__118basic_stringstreamIcNS_11char_traitsIcEENS_9allocatorIcEEEE to i8*), i8* bitcast (void (%"class.std::__1::basic_stringstream"*)* @_ZNSt3__118basic_stringstreamIcNS_11char_traitsIcEENS_9allocatorIcEEED1Ev to i8*), i8* bitcast (void (%"class.std::__1::basic_stringstream"*)* @_ZNSt3__118basic_stringstreamIcNS_11char_traitsIcEENS_9allocatorIcEEED0Ev to i8*), i8* inttoptr (i64 112 to i8*), i8* inttoptr (i64 -16 to i8*), i8* bitcast ({ i8*, i8*, i8* }* @_ZTINSt3__118basic_stringstreamIcNS_11char_traitsIcEENS_9allocatorIcEEEE to i8*), i8* bitcast (void (%"class.std::__1::basic_stringstream"*)* @_ZThn16_NSt3__118basic_stringstreamIcNS_11char_traitsIcEENS_9allocatorIcEEED1Ev to i8*), i8* bitcast (void (%"class.std::__1::basic_stringstream"*)* @_ZThn16_NSt3__118basic_stringstreamIcNS_11char_traitsIcEENS_9allocatorIcEEED0Ev to i8*), i8* inttoptr (i64 -128 to i8*), i8* inttoptr (i64 -128 to i8*), i8* bitcast ({ i8*, i8*, i8* }* @_ZTINSt3__118basic_stringstreamIcNS_11char_traitsIcEENS_9allocatorIcEEEE to i8*), i8* bitcast (void (%"class.std::__1::basic_stringstream"*)* @_ZTv0_n24_NSt3__118basic_stringstreamIcNS_11char_traitsIcEENS_9allocatorIcEEED1Ev to i8*), i8* bitcast (void (%"class.std::__1::basic_stringstream"*)* @_ZTv0_n24_NSt3__118basic_stringstreamIcNS_11char_traitsIcEENS_9allocatorIcEEED0Ev to i8*)], align 8
@_ZTTNSt3__118basic_stringstreamIcNS_11char_traitsIcEENS_9allocatorIcEEEE = linkonce_odr unnamed_addr constant [10 x i8*] [i8* bitcast (i8** getelementptr inbounds ([15 x i8*], [15 x i8*]* @_ZTVNSt3__118basic_stringstreamIcNS_11char_traitsIcEENS_9allocatorIcEEEE, i64 0, i64 3) to i8*), i8* bitcast (i8** getelementptr inbounds ([15 x i8*], [15 x i8*]* @_ZTCNSt3__118basic_stringstreamIcNS_11char_traitsIcEENS_9allocatorIcEEEE0_NS_14basic_iostreamIcS2_EE, i64 0, i64 3) to i8*), i8* bitcast (i8** getelementptr inbounds ([10 x i8*], [10 x i8*]* @_ZTCNSt3__118basic_stringstreamIcNS_11char_traitsIcEENS_9allocatorIcEEEE0_NS_13basic_istreamIcS2_EE, i64 0, i64 3) to i8*), i8* bitcast (i8** getelementptr inbounds ([10 x i8*], [10 x i8*]* @_ZTCNSt3__118basic_stringstreamIcNS_11char_traitsIcEENS_9allocatorIcEEEE0_NS_13basic_istreamIcS2_EE, i64 0, i64 8) to i8*), i8* bitcast (i8** getelementptr inbounds ([10 x i8*], [10 x i8*]* @_ZTCNSt3__118basic_stringstreamIcNS_11char_traitsIcEENS_9allocatorIcEEEE16_NS_13basic_ostreamIcS2_EE, i64 0, i64 3) to i8*), i8* bitcast (i8** getelementptr inbounds ([10 x i8*], [10 x i8*]* @_ZTCNSt3__118basic_stringstreamIcNS_11char_traitsIcEENS_9allocatorIcEEEE16_NS_13basic_ostreamIcS2_EE, i64 0, i64 8) to i8*), i8* bitcast (i8** getelementptr inbounds ([15 x i8*], [15 x i8*]* @_ZTCNSt3__118basic_stringstreamIcNS_11char_traitsIcEENS_9allocatorIcEEEE0_NS_14basic_iostreamIcS2_EE, i64 0, i64 13) to i8*), i8* bitcast (i8** getelementptr inbounds ([15 x i8*], [15 x i8*]* @_ZTCNSt3__118basic_stringstreamIcNS_11char_traitsIcEENS_9allocatorIcEEEE0_NS_14basic_iostreamIcS2_EE, i64 0, i64 8) to i8*), i8* bitcast (i8** getelementptr inbounds ([15 x i8*], [15 x i8*]* @_ZTVNSt3__118basic_stringstreamIcNS_11char_traitsIcEENS_9allocatorIcEEEE, i64 0, i64 13) to i8*), i8* bitcast (i8** getelementptr inbounds ([15 x i8*], [15 x i8*]* @_ZTVNSt3__118basic_stringstreamIcNS_11char_traitsIcEENS_9allocatorIcEEEE, i64 0, i64 8) to i8*)]
@_ZTCNSt3__118basic_stringstreamIcNS_11char_traitsIcEENS_9allocatorIcEEEE0_NS_14basic_iostreamIcS2_EE = linkonce_odr unnamed_addr constant [15 x i8*] [i8* inttoptr (i64 128 to i8*), i8* null, i8* bitcast (i8** @_ZTINSt3__114basic_iostreamIcNS_11char_traitsIcEEEE to i8*), i8* bitcast (void (%"class.std::__1::basic_iostream"*)* @_ZNSt3__114basic_iostreamIcNS_11char_traitsIcEEED1Ev to i8*), i8* bitcast (void (%"class.std::__1::basic_iostream"*)* @_ZNSt3__114basic_iostreamIcNS_11char_traitsIcEEED0Ev to i8*), i8* inttoptr (i64 112 to i8*), i8* inttoptr (i64 -16 to i8*), i8* bitcast (i8** @_ZTINSt3__114basic_iostreamIcNS_11char_traitsIcEEEE to i8*), i8* bitcast (void (%"class.std::__1::basic_iostream"*)* @_ZThn16_NSt3__114basic_iostreamIcNS_11char_traitsIcEEED1Ev to i8*), i8* bitcast (void (%"class.std::__1::basic_iostream"*)* @_ZThn16_NSt3__114basic_iostreamIcNS_11char_traitsIcEEED0Ev to i8*), i8* inttoptr (i64 -128 to i8*), i8* inttoptr (i64 -128 to i8*), i8* bitcast (i8** @_ZTINSt3__114basic_iostreamIcNS_11char_traitsIcEEEE to i8*), i8* bitcast (void (%"class.std::__1::basic_iostream"*)* @_ZTv0_n24_NSt3__114basic_iostreamIcNS_11char_traitsIcEEED1Ev to i8*), i8* bitcast (void (%"class.std::__1::basic_iostream"*)* @_ZTv0_n24_NSt3__114basic_iostreamIcNS_11char_traitsIcEEED0Ev to i8*)]
@_ZTINSt3__114basic_iostreamIcNS_11char_traitsIcEEEE = external constant i8*
@_ZTCNSt3__118basic_stringstreamIcNS_11char_traitsIcEENS_9allocatorIcEEEE0_NS_13basic_istreamIcS2_EE = linkonce_odr unnamed_addr constant [10 x i8*] [i8* inttoptr (i64 128 to i8*), i8* null, i8* bitcast (i8** @_ZTINSt3__113basic_istreamIcNS_11char_traitsIcEEEE to i8*), i8* bitcast (void (%"class.std::__1::basic_istream"*)* @_ZNSt3__113basic_istreamIcNS_11char_traitsIcEEED1Ev to i8*), i8* bitcast (void (%"class.std::__1::basic_istream"*)* @_ZNSt3__113basic_istreamIcNS_11char_traitsIcEEED0Ev to i8*), i8* inttoptr (i64 -128 to i8*), i8* inttoptr (i64 -128 to i8*), i8* bitcast (i8** @_ZTINSt3__113basic_istreamIcNS_11char_traitsIcEEEE to i8*), i8* bitcast (void (%"class.std::__1::basic_istream"*)* @_ZTv0_n24_NSt3__113basic_istreamIcNS_11char_traitsIcEEED1Ev to i8*), i8* bitcast (void (%"class.std::__1::basic_istream"*)* @_ZTv0_n24_NSt3__113basic_istreamIcNS_11char_traitsIcEEED0Ev to i8*)]
@_ZTINSt3__113basic_istreamIcNS_11char_traitsIcEEEE = external constant i8*
@_ZTCNSt3__118basic_stringstreamIcNS_11char_traitsIcEENS_9allocatorIcEEEE16_NS_13basic_ostreamIcS2_EE = linkonce_odr unnamed_addr constant [10 x i8*] [i8* inttoptr (i64 112 to i8*), i8* null, i8* bitcast (i8** @_ZTINSt3__113basic_ostreamIcNS_11char_traitsIcEEEE to i8*), i8* bitcast (void (%"class.std::__1::basic_ostream"*)* @_ZNSt3__113basic_ostreamIcNS_11char_traitsIcEEED1Ev to i8*), i8* bitcast (void (%"class.std::__1::basic_ostream"*)* @_ZNSt3__113basic_ostreamIcNS_11char_traitsIcEEED0Ev to i8*), i8* inttoptr (i64 -112 to i8*), i8* inttoptr (i64 -112 to i8*), i8* bitcast (i8** @_ZTINSt3__113basic_ostreamIcNS_11char_traitsIcEEEE to i8*), i8* bitcast (void (%"class.std::__1::basic_ostream"*)* @_ZTv0_n24_NSt3__113basic_ostreamIcNS_11char_traitsIcEEED1Ev to i8*), i8* bitcast (void (%"class.std::__1::basic_ostream"*)* @_ZTv0_n24_NSt3__113basic_ostreamIcNS_11char_traitsIcEEED0Ev to i8*)]
@_ZTINSt3__113basic_ostreamIcNS_11char_traitsIcEEEE = external constant i8*
@_ZTSNSt3__118basic_stringstreamIcNS_11char_traitsIcEENS_9allocatorIcEEEE = linkonce_odr constant [69 x i8] c"NSt3__118basic_stringstreamIcNS_11char_traitsIcEENS_9allocatorIcEEEE\00"
@_ZTINSt3__118basic_stringstreamIcNS_11char_traitsIcEENS_9allocatorIcEEEE = linkonce_odr constant { i8*, i8*, i8* } { i8* bitcast (i8** getelementptr inbounds (i8*, i8** @_ZTVN10__cxxabiv120__si_class_type_infoE, i64 2) to i8*), i8* getelementptr inbounds ([69 x i8], [69 x i8]* @_ZTSNSt3__118basic_stringstreamIcNS_11char_traitsIcEENS_9allocatorIcEEEE, i32 0, i32 0), i8* bitcast (i8** @_ZTINSt3__114basic_iostreamIcNS_11char_traitsIcEEEE to i8*) }
@_ZTVNSt3__19basic_iosIcNS_11char_traitsIcEEEE = external unnamed_addr constant [4 x i8*]
@_ZTVNSt3__18ios_baseE = external unnamed_addr constant [4 x i8*]
@_ZTVNSt3__115basic_stringbufIcNS_11char_traitsIcEENS_9allocatorIcEEEE = linkonce_odr unnamed_addr constant [16 x i8*] [i8* null, i8* bitcast ({ i8*, i8*, i8* }* @_ZTINSt3__115basic_stringbufIcNS_11char_traitsIcEENS_9allocatorIcEEEE to i8*), i8* bitcast (void (%"class.std::__1::basic_stringbuf"*)* @_ZNSt3__115basic_stringbufIcNS_11char_traitsIcEENS_9allocatorIcEEED1Ev to i8*), i8* bitcast (void (%"class.std::__1::basic_stringbuf"*)* @_ZNSt3__115basic_stringbufIcNS_11char_traitsIcEENS_9allocatorIcEEED0Ev to i8*), i8* bitcast (void (%"class.std::__1::basic_streambuf"*, %"class.std::__1::locale"*)* @_ZNSt3__115basic_streambufIcNS_11char_traitsIcEEE5imbueERKNS_6localeE to i8*), i8* bitcast (%"class.std::__1::basic_streambuf"* (%"class.std::__1::basic_streambuf"*, i8*, i64)* @_ZNSt3__115basic_streambufIcNS_11char_traitsIcEEE6setbufEPcl to i8*), i8* bitcast (void (%"class.std::__1::fpos"*, %"class.std::__1::basic_stringbuf"*, i64, i32, i32)* @_ZNSt3__115basic_stringbufIcNS_11char_traitsIcEENS_9allocatorIcEEE7seekoffExNS_8ios_base7seekdirEj to i8*), i8* bitcast (void (%"class.std::__1::fpos"*, %"class.std::__1::basic_stringbuf"*, %"class.std::__1::fpos"*, i32)* @_ZNSt3__115basic_stringbufIcNS_11char_traitsIcEENS_9allocatorIcEEE7seekposENS_4fposI11__mbstate_tEEj to i8*), i8* bitcast (i32 (%"class.std::__1::basic_streambuf"*)* @_ZNSt3__115basic_streambufIcNS_11char_traitsIcEEE4syncEv to i8*), i8* bitcast (i64 (%"class.std::__1::basic_streambuf"*)* @_ZNSt3__115basic_streambufIcNS_11char_traitsIcEEE9showmanycEv to i8*), i8* bitcast (i64 (%"class.std::__1::basic_streambuf"*, i8*, i64)* @_ZNSt3__115basic_streambufIcNS_11char_traitsIcEEE6xsgetnEPcl to i8*), i8* bitcast (i32 (%"class.std::__1::basic_stringbuf"*)* @_ZNSt3__115basic_stringbufIcNS_11char_traitsIcEENS_9allocatorIcEEE9underflowEv to i8*), i8* bitcast (i32 (%"class.std::__1::basic_streambuf"*)* @_ZNSt3__115basic_streambufIcNS_11char_traitsIcEEE5uflowEv to i8*), i8* bitcast (i32 (%"class.std::__1::basic_stringbuf"*, i32)* @_ZNSt3__115basic_stringbufIcNS_11char_traitsIcEENS_9allocatorIcEEE9pbackfailEi to i8*), i8* bitcast (i64 (%"class.std::__1::basic_streambuf"*, i8*, i64)* @_ZNSt3__115basic_streambufIcNS_11char_traitsIcEEE6xsputnEPKcl to i8*), i8* bitcast (i32 (%"class.std::__1::basic_stringbuf"*, i32)* @_ZNSt3__115basic_stringbufIcNS_11char_traitsIcEENS_9allocatorIcEEE8overflowEi to i8*)], align 8
@_ZTSNSt3__115basic_stringbufIcNS_11char_traitsIcEENS_9allocatorIcEEEE = linkonce_odr constant [66 x i8] c"NSt3__115basic_stringbufIcNS_11char_traitsIcEENS_9allocatorIcEEEE\00"
@_ZTINSt3__115basic_streambufIcNS_11char_traitsIcEEEE = external constant i8*
@_ZTINSt3__115basic_stringbufIcNS_11char_traitsIcEENS_9allocatorIcEEEE = linkonce_odr constant { i8*, i8*, i8* } { i8* bitcast (i8** getelementptr inbounds (i8*, i8** @_ZTVN10__cxxabiv120__si_class_type_infoE, i64 2) to i8*), i8* getelementptr inbounds ([66 x i8], [66 x i8]* @_ZTSNSt3__115basic_stringbufIcNS_11char_traitsIcEENS_9allocatorIcEEEE, i32 0, i32 0), i8* bitcast (i8** @_ZTINSt3__115basic_streambufIcNS_11char_traitsIcEEEE to i8*) }
@llvm.global_ctors = appending global [1 x { i32, void ()*, i8* }] [{ i32, void ()*, i8* } { i32 65535, void ()* @_GLOBAL__sub_I_LabTest.cpp, i8* null }]

; Function Attrs: nounwind ssp uwtable
define internal void @__cxx_global_var_init() #0 section "__TEXT,__StaticInit,regular,pure_instructions" !dbg !3927 {
  %1 = call i8* @_ZN7testing8internal13GetTestTypeIdEv(), !dbg !3928
  %2 = call noalias i8* @_Znwm(i64 8) #9, !dbg !3928
  %3 = bitcast i8* %2 to %"class.testing::internal::TestFactoryImpl"*, !dbg !3928
  call void @_ZN7testing8internal15TestFactoryImplI14Hello_sup_TestEC1Ev(%"class.testing::internal::TestFactoryImpl"* %3), !dbg !3928
  %4 = bitcast %"class.testing::internal::TestFactoryImpl"* %3 to %"class.testing::internal::TestFactoryBase"*, !dbg !3928
  %5 = call %"class.testing::TestInfo"* @_ZN7testing8internal23MakeAndRegisterTestInfoEPKcS2_S2_S2_PKvPFvvES6_PNS0_15TestFactoryBaseE(i8* getelementptr inbounds ([6 x i8], [6 x i8]* @.str, i32 0, i32 0), i8* getelementptr inbounds ([4 x i8], [4 x i8]* @.str.1, i32 0, i32 0), i8* null, i8* null, i8* %1, void ()* @_ZN7testing4Test13SetUpTestCaseEv, void ()* @_ZN7testing4Test16TearDownTestCaseEv, %"class.testing::internal::TestFactoryBase"* %4), !dbg !3928
  store %"class.testing::TestInfo"* %5, %"class.testing::TestInfo"** @_ZN14Hello_sup_Test10test_info_E, align 8, !dbg !3928
  ret void, !dbg !3928
}

declare %"class.testing::TestInfo"* @_ZN7testing8internal23MakeAndRegisterTestInfoEPKcS2_S2_S2_PKvPFvvES6_PNS0_15TestFactoryBaseE(i8*, i8*, i8*, i8*, i8*, void ()*, void ()*, %"class.testing::internal::TestFactoryBase"*) #1

declare i8* @_ZN7testing8internal13GetTestTypeIdEv() #1

; Function Attrs: nounwind ssp uwtable
define linkonce_odr void @_ZN7testing4Test13SetUpTestCaseEv() #0 align 2 !dbg !3929 {
  ret void, !dbg !3930
}

; Function Attrs: nounwind ssp uwtable
define linkonce_odr void @_ZN7testing4Test16TearDownTestCaseEv() #0 align 2 !dbg !3931 {
  ret void, !dbg !3932
}

; Function Attrs: nobuiltin
declare noalias i8* @_Znwm(i64) #2

; Function Attrs: inlinehint nounwind ssp uwtable
define linkonce_odr void @_ZN7testing8internal15TestFactoryImplI14Hello_sup_TestEC1Ev(%"class.testing::internal::TestFactoryImpl"*) unnamed_addr #3 align 2 !dbg !3933 {
  %2 = alloca %"class.testing::internal::TestFactoryImpl"*, align 8
  store %"class.testing::internal::TestFactoryImpl"* %0, %"class.testing::internal::TestFactoryImpl"** %2, align 8
  call void @llvm.dbg.declare(metadata %"class.testing::internal::TestFactoryImpl"** %2, metadata !3946, metadata !3948), !dbg !3949
  %3 = load %"class.testing::internal::TestFactoryImpl"*, %"class.testing::internal::TestFactoryImpl"** %2, align 8
  call void @_ZN7testing8internal15TestFactoryImplI14Hello_sup_TestEC2Ev(%"class.testing::internal::TestFactoryImpl"* %3), !dbg !3950
  ret void, !dbg !3950
}

; Function Attrs: nounwind ssp uwtable
define void @_ZN14Hello_sup_Test8TestBodyEv(%class.Hello_sup_Test*) unnamed_addr #0 align 2 !dbg !3951 {
  %2 = alloca %class.Hello_sup_Test*, align 8
  %3 = alloca %class.LabTestee, align 1
  %4 = alloca i32, align 4
  %5 = alloca %"class.testing::AssertionResult", align 8
  %6 = alloca i32, align 4
  %7 = alloca %"class.testing::internal::AssertHelper", align 8
  %8 = alloca %"class.testing::Message", align 8
  store %class.Hello_sup_Test* %0, %class.Hello_sup_Test** %2, align 8
  call void @llvm.dbg.declare(metadata %class.Hello_sup_Test** %2, metadata !3952, metadata !3948), !dbg !3954
  %9 = load %class.Hello_sup_Test*, %class.Hello_sup_Test** %2, align 8
  call void @llvm.dbg.declare(metadata %class.LabTestee* %3, metadata !3955, metadata !3948), !dbg !3963
  call void @llvm.dbg.declare(metadata i32* %4, metadata !3964, metadata !3948), !dbg !3965
  %10 = call i32 @_ZN9LabTestee6testeeEv(%class.LabTestee* %3), !dbg !3966
  store i32 %10, i32* %4, align 4, !dbg !3965
  call void @llvm.dbg.declare(metadata %"class.testing::AssertionResult"* %5, metadata !3967, metadata !3948), !dbg !4987
  store i32 1, i32* %6, align 4, !dbg !4987
  call void @_ZN7testing8internal8EqHelperILb0EE7CompareIiiEENS_15AssertionResultEPKcS6_RKT_RKT0_(%"class.testing::AssertionResult"* sret %5, i8* getelementptr inbounds ([7 x i8], [7 x i8]* @.str.2, i32 0, i32 0), i8* getelementptr inbounds ([2 x i8], [2 x i8]* @.str.3, i32 0, i32 0), i32* dereferenceable(4) %4, i32* dereferenceable(4) %6), !dbg !4987
  %11 = call zeroext i1 @_ZNK7testing15AssertionResultcvbEv(%"class.testing::AssertionResult"* %5), !dbg !4987
  br i1 %11, label %12, label %13, !dbg !4988

; <label>:12                                      ; preds = %1
  br label %15, !dbg !4988

; <label>:13                                      ; preds = %1
  %14 = call i8* @_ZNK7testing15AssertionResult15failure_messageEv(%"class.testing::AssertionResult"* %5), !dbg !4987
  call void @_ZN7testing8internal12AssertHelperC1ENS_14TestPartResult4TypeEPKciS5_(%"class.testing::internal::AssertHelper"* %7, i32 1, i8* getelementptr inbounds ([14 x i8], [14 x i8]* @.str.4, i32 0, i32 0), i32 9, i8* %14), !dbg !4987
  call void @_ZN7testing7MessageC1Ev(%"class.testing::Message"* %8), !dbg !4987
  call void @_ZNK7testing8internal12AssertHelperaSERKNS_7MessageE(%"class.testing::internal::AssertHelper"* %7, %"class.testing::Message"* dereferenceable(8) %8), !dbg !4987
  call void @_ZN7testing7MessageD1Ev(%"class.testing::Message"* %8) #10, !dbg !4987
  call void @_ZN7testing8internal12AssertHelperD1Ev(%"class.testing::internal::AssertHelper"* %7) #10, !dbg !4987
  br label %15

; <label>:15                                      ; preds = %13, %12
  call void @_ZN7testing15AssertionResultD1Ev(%"class.testing::AssertionResult"* %5) #10, !dbg !4988
  ret void, !dbg !4989
}

; Function Attrs: nounwind readnone
declare void @llvm.dbg.declare(metadata, metadata, metadata) #4

declare i32 @_ZN9LabTestee6testeeEv(%class.LabTestee*) #1

; Function Attrs: nounwind ssp uwtable
define linkonce_odr void @_ZN7testing8internal8EqHelperILb0EE7CompareIiiEENS_15AssertionResultEPKcS6_RKT_RKT0_(%"class.testing::AssertionResult"* noalias sret, i8*, i8*, i32* dereferenceable(4), i32* dereferenceable(4)) #0 align 2 !dbg !4990 {
  %6 = alloca i8*, align 8
  %7 = alloca i8*, align 8
  %8 = alloca i32*, align 8
  %9 = alloca i32*, align 8
  store i8* %1, i8** %6, align 8
  call void @llvm.dbg.declare(metadata i8** %6, metadata !5005, metadata !3948), !dbg !5006
  store i8* %2, i8** %7, align 8
  call void @llvm.dbg.declare(metadata i8** %7, metadata !5007, metadata !3948), !dbg !5008
  store i32* %3, i32** %8, align 8
  call void @llvm.dbg.declare(metadata i32** %8, metadata !5009, metadata !3948), !dbg !5010
  store i32* %4, i32** %9, align 8
  call void @llvm.dbg.declare(metadata i32** %9, metadata !5011, metadata !3948), !dbg !5012
  %10 = load i8*, i8** %6, align 8, !dbg !5013
  %11 = load i8*, i8** %7, align 8, !dbg !5014
  %12 = load i32*, i32** %8, align 8, !dbg !5015
  %13 = load i32*, i32** %9, align 8, !dbg !5016
  call void @_ZN7testing8internal11CmpHelperEQIiiEENS_15AssertionResultEPKcS4_RKT_RKT0_(%"class.testing::AssertionResult"* sret %0, i8* %10, i8* %11, i32* dereferenceable(4) %12, i32* dereferenceable(4) %13), !dbg !5017
  ret void, !dbg !5018
}

; Function Attrs: nounwind ssp uwtable
define linkonce_odr zeroext i1 @_ZNK7testing15AssertionResultcvbEv(%"class.testing::AssertionResult"*) #0 align 2 !dbg !5019 {
  %2 = alloca %"class.testing::AssertionResult"*, align 8
  store %"class.testing::AssertionResult"* %0, %"class.testing::AssertionResult"** %2, align 8
  call void @llvm.dbg.declare(metadata %"class.testing::AssertionResult"** %2, metadata !5020, metadata !3948), !dbg !5022
  %3 = load %"class.testing::AssertionResult"*, %"class.testing::AssertionResult"** %2, align 8
  %4 = getelementptr inbounds %"class.testing::AssertionResult", %"class.testing::AssertionResult"* %3, i32 0, i32 0, !dbg !5023
  %5 = load i8, i8* %4, align 8, !dbg !5023
  %6 = trunc i8 %5 to i1, !dbg !5023
  ret i1 %6, !dbg !5024
}

; Function Attrs: nounwind ssp uwtable
define linkonce_odr i8* @_ZNK7testing15AssertionResult15failure_messageEv(%"class.testing::AssertionResult"*) #0 align 2 !dbg !5025 {
  %2 = alloca %"class.testing::AssertionResult"*, align 8
  store %"class.testing::AssertionResult"* %0, %"class.testing::AssertionResult"** %2, align 8
  call void @llvm.dbg.declare(metadata %"class.testing::AssertionResult"** %2, metadata !5026, metadata !3948), !dbg !5027
  %3 = load %"class.testing::AssertionResult"*, %"class.testing::AssertionResult"** %2, align 8
  %4 = call i8* @_ZNK7testing15AssertionResult7messageEv(%"class.testing::AssertionResult"* %3), !dbg !5028
  ret i8* %4, !dbg !5029
}

declare void @_ZN7testing8internal12AssertHelperC1ENS_14TestPartResult4TypeEPKciS5_(%"class.testing::internal::AssertHelper"*, i32, i8*, i32, i8*) #1

declare void @_ZNK7testing8internal12AssertHelperaSERKNS_7MessageE(%"class.testing::internal::AssertHelper"*, %"class.testing::Message"* dereferenceable(8)) #1

; Function Attrs: nounwind ssp uwtable
define linkonce_odr void @_ZN7testing7MessageC1Ev(%"class.testing::Message"*) unnamed_addr #0 align 2 !dbg !5030 {
  %2 = alloca %"class.testing::Message"*, align 8
  store %"class.testing::Message"* %0, %"class.testing::Message"** %2, align 8
  call void @llvm.dbg.declare(metadata %"class.testing::Message"** %2, metadata !5031, metadata !3948), !dbg !5033
  %3 = load %"class.testing::Message"*, %"class.testing::Message"** %2, align 8
  call void @_ZN7testing7MessageC2Ev(%"class.testing::Message"* %3), !dbg !5034
  ret void, !dbg !5035
}

; Function Attrs: inlinehint nounwind ssp uwtable
define linkonce_odr void @_ZN7testing7MessageD1Ev(%"class.testing::Message"*) unnamed_addr #3 align 2 !dbg !5036 {
  %2 = alloca %"class.testing::Message"*, align 8
  store %"class.testing::Message"* %0, %"class.testing::Message"** %2, align 8
  call void @llvm.dbg.declare(metadata %"class.testing::Message"** %2, metadata !5038, metadata !3948), !dbg !5039
  %3 = load %"class.testing::Message"*, %"class.testing::Message"** %2, align 8
  call void @_ZN7testing7MessageD2Ev(%"class.testing::Message"* %3) #10, !dbg !5040
  ret void, !dbg !5040
}

; Function Attrs: nounwind
declare void @_ZN7testing8internal12AssertHelperD1Ev(%"class.testing::internal::AssertHelper"*) #5

; Function Attrs: inlinehint nounwind ssp uwtable
define linkonce_odr void @_ZN7testing15AssertionResultD1Ev(%"class.testing::AssertionResult"*) unnamed_addr #3 align 2 !dbg !5041 {
  %2 = alloca %"class.testing::AssertionResult"*, align 8
  store %"class.testing::AssertionResult"* %0, %"class.testing::AssertionResult"** %2, align 8
  call void @llvm.dbg.declare(metadata %"class.testing::AssertionResult"** %2, metadata !5045, metadata !3948), !dbg !5047
  %3 = load %"class.testing::AssertionResult"*, %"class.testing::AssertionResult"** %2, align 8
  call void @_ZN7testing15AssertionResultD2Ev(%"class.testing::AssertionResult"* %3) #10, !dbg !5048
  ret void, !dbg !5048
}

; Function Attrs: inlinehint nounwind ssp uwtable
define linkonce_odr void @_ZN14Hello_sup_TestD1Ev(%class.Hello_sup_Test*) unnamed_addr #3 align 2 !dbg !5049 {
  %2 = alloca %class.Hello_sup_Test*, align 8
  store %class.Hello_sup_Test* %0, %class.Hello_sup_Test** %2, align 8
  call void @llvm.dbg.declare(metadata %class.Hello_sup_Test** %2, metadata !5051, metadata !3948), !dbg !5052
  %3 = load %class.Hello_sup_Test*, %class.Hello_sup_Test** %2, align 8
  call void @_ZN14Hello_sup_TestD2Ev(%class.Hello_sup_Test* %3) #10, !dbg !5053
  ret void, !dbg !5053
}

; Function Attrs: inlinehint nounwind ssp uwtable
define linkonce_odr void @_ZN14Hello_sup_TestD0Ev(%class.Hello_sup_Test*) unnamed_addr #3 align 2 !dbg !5054 {
  %2 = alloca %class.Hello_sup_Test*, align 8
  store %class.Hello_sup_Test* %0, %class.Hello_sup_Test** %2, align 8
  call void @llvm.dbg.declare(metadata %class.Hello_sup_Test** %2, metadata !5055, metadata !3948), !dbg !5056
  %3 = load %class.Hello_sup_Test*, %class.Hello_sup_Test** %2, align 8
  call void @_ZN14Hello_sup_TestD1Ev(%class.Hello_sup_Test* %3) #10, !dbg !5057
  %4 = bitcast %class.Hello_sup_Test* %3 to i8*, !dbg !5057
  call void @_ZdlPv(i8* %4) #11, !dbg !5057
  ret void, !dbg !5057
}

declare void @_ZN7testing4Test5SetUpEv(%"class.testing::Test"*) #1

declare void @_ZN7testing4Test8TearDownEv(%"class.testing::Test"*) #1

; Function Attrs: nounwind ssp uwtable
define linkonce_odr %"struct.testing::Test::Setup_should_be_spelled_SetUp"* @_ZN7testing4Test5SetupEv(%"class.testing::Test"*) unnamed_addr #0 align 2 !dbg !5058 {
  %2 = alloca %"class.testing::Test"*, align 8
  store %"class.testing::Test"* %0, %"class.testing::Test"** %2, align 8
  call void @llvm.dbg.declare(metadata %"class.testing::Test"** %2, metadata !5059, metadata !3948), !dbg !5060
  %3 = load %"class.testing::Test"*, %"class.testing::Test"** %2, align 8
  ret %"struct.testing::Test::Setup_should_be_spelled_SetUp"* null, !dbg !5061
}

; Function Attrs: inlinehint nounwind ssp uwtable
define linkonce_odr void @_ZN7testing8internal15TestFactoryImplI14Hello_sup_TestEC2Ev(%"class.testing::internal::TestFactoryImpl"*) unnamed_addr #3 align 2 !dbg !5062 {
  %2 = alloca %"class.testing::internal::TestFactoryImpl"*, align 8
  store %"class.testing::internal::TestFactoryImpl"* %0, %"class.testing::internal::TestFactoryImpl"** %2, align 8
  call void @llvm.dbg.declare(metadata %"class.testing::internal::TestFactoryImpl"** %2, metadata !5063, metadata !3948), !dbg !5064
  %3 = load %"class.testing::internal::TestFactoryImpl"*, %"class.testing::internal::TestFactoryImpl"** %2, align 8
  %4 = bitcast %"class.testing::internal::TestFactoryImpl"* %3 to %"class.testing::internal::TestFactoryBase"*, !dbg !5065
  call void @_ZN7testing8internal15TestFactoryBaseC2Ev(%"class.testing::internal::TestFactoryBase"* %4), !dbg !5065
  %5 = bitcast %"class.testing::internal::TestFactoryImpl"* %3 to i32 (...)***, !dbg !5065
  store i32 (...)** bitcast (i8** getelementptr inbounds ([5 x i8*], [5 x i8*]* @_ZTVN7testing8internal15TestFactoryImplI14Hello_sup_TestEE, i64 0, i64 2) to i32 (...)**), i32 (...)*** %5, align 8, !dbg !5065
  ret void, !dbg !5065
}

; Function Attrs: nounwind ssp uwtable
define linkonce_odr void @_ZN7testing8internal15TestFactoryBaseC2Ev(%"class.testing::internal::TestFactoryBase"*) unnamed_addr #0 align 2 !dbg !5066 {
  %2 = alloca %"class.testing::internal::TestFactoryBase"*, align 8
  store %"class.testing::internal::TestFactoryBase"* %0, %"class.testing::internal::TestFactoryBase"** %2, align 8
  call void @llvm.dbg.declare(metadata %"class.testing::internal::TestFactoryBase"** %2, metadata !5067, metadata !3948), !dbg !5068
  %3 = load %"class.testing::internal::TestFactoryBase"*, %"class.testing::internal::TestFactoryBase"** %2, align 8
  %4 = bitcast %"class.testing::internal::TestFactoryBase"* %3 to i32 (...)***, !dbg !5069
  store i32 (...)** bitcast (i8** getelementptr inbounds ([5 x i8*], [5 x i8*]* @_ZTVN7testing8internal15TestFactoryBaseE, i64 0, i64 2) to i32 (...)**), i32 (...)*** %4, align 8, !dbg !5069
  ret void, !dbg !5070
}

; Function Attrs: inlinehint nounwind ssp uwtable
define linkonce_odr void @_ZN7testing8internal15TestFactoryImplI14Hello_sup_TestED1Ev(%"class.testing::internal::TestFactoryImpl"*) unnamed_addr #3 align 2 !dbg !5071 {
  %2 = alloca %"class.testing::internal::TestFactoryImpl"*, align 8
  store %"class.testing::internal::TestFactoryImpl"* %0, %"class.testing::internal::TestFactoryImpl"** %2, align 8
  call void @llvm.dbg.declare(metadata %"class.testing::internal::TestFactoryImpl"** %2, metadata !5073, metadata !3948), !dbg !5074
  %3 = load %"class.testing::internal::TestFactoryImpl"*, %"class.testing::internal::TestFactoryImpl"** %2, align 8
  call void @_ZN7testing8internal15TestFactoryImplI14Hello_sup_TestED2Ev(%"class.testing::internal::TestFactoryImpl"* %3) #10, !dbg !5075
  ret void, !dbg !5075
}

; Function Attrs: inlinehint nounwind ssp uwtable
define linkonce_odr void @_ZN7testing8internal15TestFactoryImplI14Hello_sup_TestED0Ev(%"class.testing::internal::TestFactoryImpl"*) unnamed_addr #3 align 2 !dbg !5076 {
  %2 = alloca %"class.testing::internal::TestFactoryImpl"*, align 8
  store %"class.testing::internal::TestFactoryImpl"* %0, %"class.testing::internal::TestFactoryImpl"** %2, align 8
  call void @llvm.dbg.declare(metadata %"class.testing::internal::TestFactoryImpl"** %2, metadata !5077, metadata !3948), !dbg !5078
  %3 = load %"class.testing::internal::TestFactoryImpl"*, %"class.testing::internal::TestFactoryImpl"** %2, align 8
  call void @_ZN7testing8internal15TestFactoryImplI14Hello_sup_TestED1Ev(%"class.testing::internal::TestFactoryImpl"* %3) #10, !dbg !5079
  %4 = bitcast %"class.testing::internal::TestFactoryImpl"* %3 to i8*, !dbg !5079
  call void @_ZdlPv(i8* %4) #11, !dbg !5079
  ret void, !dbg !5079
}

; Function Attrs: nounwind ssp uwtable
define linkonce_odr %"class.testing::Test"* @_ZN7testing8internal15TestFactoryImplI14Hello_sup_TestE10CreateTestEv(%"class.testing::internal::TestFactoryImpl"*) unnamed_addr #0 align 2 !dbg !5080 {
  %2 = alloca %"class.testing::internal::TestFactoryImpl"*, align 8
  store %"class.testing::internal::TestFactoryImpl"* %0, %"class.testing::internal::TestFactoryImpl"** %2, align 8
  call void @llvm.dbg.declare(metadata %"class.testing::internal::TestFactoryImpl"** %2, metadata !5081, metadata !3948), !dbg !5082
  %3 = load %"class.testing::internal::TestFactoryImpl"*, %"class.testing::internal::TestFactoryImpl"** %2, align 8
  %4 = call noalias i8* @_Znwm(i64 16) #9, !dbg !5083
  %5 = bitcast i8* %4 to %class.Hello_sup_Test*, !dbg !5083
  call void @_ZN14Hello_sup_TestC1Ev(%class.Hello_sup_Test* %5), !dbg !5084
  %6 = bitcast %class.Hello_sup_Test* %5 to %"class.testing::Test"*, !dbg !5083
  ret %"class.testing::Test"* %6, !dbg !5085
}

; Function Attrs: inlinehint nounwind ssp uwtable
define linkonce_odr void @_ZN7testing8internal15TestFactoryImplI14Hello_sup_TestED2Ev(%"class.testing::internal::TestFactoryImpl"*) unnamed_addr #3 align 2 !dbg !5086 {
  %2 = alloca %"class.testing::internal::TestFactoryImpl"*, align 8
  store %"class.testing::internal::TestFactoryImpl"* %0, %"class.testing::internal::TestFactoryImpl"** %2, align 8
  call void @llvm.dbg.declare(metadata %"class.testing::internal::TestFactoryImpl"** %2, metadata !5087, metadata !3948), !dbg !5088
  %3 = load %"class.testing::internal::TestFactoryImpl"*, %"class.testing::internal::TestFactoryImpl"** %2, align 8
  %4 = bitcast %"class.testing::internal::TestFactoryImpl"* %3 to %"class.testing::internal::TestFactoryBase"*, !dbg !5089
  call void @_ZN7testing8internal15TestFactoryBaseD2Ev(%"class.testing::internal::TestFactoryBase"* %4) #10, !dbg !5089
  ret void, !dbg !5091
}

; Function Attrs: nounwind
declare void @_ZN7testing8internal15TestFactoryBaseD2Ev(%"class.testing::internal::TestFactoryBase"*) #5

; Function Attrs: nobuiltin nounwind
declare void @_ZdlPv(i8*) #6

; Function Attrs: nounwind ssp uwtable
define linkonce_odr void @_ZN14Hello_sup_TestC1Ev(%class.Hello_sup_Test*) unnamed_addr #0 align 2 !dbg !5092 {
  %2 = alloca %class.Hello_sup_Test*, align 8
  store %class.Hello_sup_Test* %0, %class.Hello_sup_Test** %2, align 8
  call void @llvm.dbg.declare(metadata %class.Hello_sup_Test** %2, metadata !5093, metadata !3948), !dbg !5094
  %3 = load %class.Hello_sup_Test*, %class.Hello_sup_Test** %2, align 8
  call void @_ZN14Hello_sup_TestC2Ev(%class.Hello_sup_Test* %3), !dbg !5095
  ret void, !dbg !5095
}

; Function Attrs: nounwind ssp uwtable
define linkonce_odr void @_ZN14Hello_sup_TestC2Ev(%class.Hello_sup_Test*) unnamed_addr #0 align 2 !dbg !5096 {
  %2 = alloca %class.Hello_sup_Test*, align 8
  store %class.Hello_sup_Test* %0, %class.Hello_sup_Test** %2, align 8
  call void @llvm.dbg.declare(metadata %class.Hello_sup_Test** %2, metadata !5097, metadata !3948), !dbg !5098
  %3 = load %class.Hello_sup_Test*, %class.Hello_sup_Test** %2, align 8
  %4 = bitcast %class.Hello_sup_Test* %3 to %"class.testing::Test"*, !dbg !5099
  call void @_ZN7testing4TestC2Ev(%"class.testing::Test"* %4), !dbg !5099
  %5 = bitcast %class.Hello_sup_Test* %3 to i32 (...)***, !dbg !5099
  store i32 (...)** bitcast (i8** getelementptr inbounds ([8 x i8*], [8 x i8*]* @_ZTV14Hello_sup_Test, i64 0, i64 2) to i32 (...)**), i32 (...)*** %5, align 8, !dbg !5099
  ret void, !dbg !5099
}

declare void @_ZN7testing4TestC2Ev(%"class.testing::Test"*) #1

; Function Attrs: nounwind ssp uwtable
define linkonce_odr i8* @_ZNK7testing15AssertionResult7messageEv(%"class.testing::AssertionResult"*) #0 align 2 !dbg !5100 {
  %2 = alloca i8*, align 8
  call void @llvm.dbg.declare(metadata i8** %2, metadata !5101, metadata !3948), !dbg !5105
  %3 = alloca %"class.std::__1::__libcpp_compressed_pair_imp"*, align 8
  call void @llvm.dbg.declare(metadata %"class.std::__1::__libcpp_compressed_pair_imp"** %3, metadata !5111, metadata !3948), !dbg !5114
  %4 = alloca %"class.std::__1::__compressed_pair"*, align 8
  call void @llvm.dbg.declare(metadata %"class.std::__1::__compressed_pair"** %4, metadata !5122, metadata !3948), !dbg !5124
  %5 = alloca %"class.std::__1::basic_string"*, align 8
  call void @llvm.dbg.declare(metadata %"class.std::__1::basic_string"** %5, metadata !5125, metadata !3948), !dbg !5126
  %6 = alloca i8*, align 8
  call void @llvm.dbg.declare(metadata i8** %6, metadata !5127, metadata !3948), !dbg !5132
  %7 = alloca i8*, align 8
  call void @llvm.dbg.declare(metadata i8** %7, metadata !5153, metadata !3948), !dbg !5154
  %8 = alloca %"class.std::__1::__libcpp_compressed_pair_imp"*, align 8
  call void @llvm.dbg.declare(metadata %"class.std::__1::__libcpp_compressed_pair_imp"** %8, metadata !5111, metadata !3948), !dbg !5155
  %9 = alloca %"class.std::__1::__compressed_pair"*, align 8
  call void @llvm.dbg.declare(metadata %"class.std::__1::__compressed_pair"** %9, metadata !5122, metadata !3948), !dbg !5158
  %10 = alloca %"class.std::__1::basic_string"*, align 8
  call void @llvm.dbg.declare(metadata %"class.std::__1::basic_string"** %10, metadata !5159, metadata !3948), !dbg !5160
  %11 = alloca %"class.std::__1::__libcpp_compressed_pair_imp"*, align 8
  call void @llvm.dbg.declare(metadata %"class.std::__1::__libcpp_compressed_pair_imp"** %11, metadata !5111, metadata !3948), !dbg !5161
  %12 = alloca %"class.std::__1::__compressed_pair"*, align 8
  call void @llvm.dbg.declare(metadata %"class.std::__1::__compressed_pair"** %12, metadata !5122, metadata !3948), !dbg !5166
  %13 = alloca %"class.std::__1::basic_string"*, align 8
  call void @llvm.dbg.declare(metadata %"class.std::__1::basic_string"** %13, metadata !5167, metadata !3948), !dbg !5168
  %14 = alloca %"class.std::__1::basic_string"*, align 8
  call void @llvm.dbg.declare(metadata %"class.std::__1::basic_string"** %14, metadata !5169, metadata !3948), !dbg !5170
  %15 = alloca %"class.std::__1::basic_string"*, align 8
  call void @llvm.dbg.declare(metadata %"class.std::__1::basic_string"** %15, metadata !5171, metadata !3948), !dbg !5172
  %16 = alloca %"class.std::__1::basic_string"*, align 8
  call void @llvm.dbg.declare(metadata %"class.std::__1::basic_string"** %16, metadata !5173, metadata !3948), !dbg !5174
  %17 = alloca %"class.testing::AssertionResult"*, align 8
  store %"class.testing::AssertionResult"* %0, %"class.testing::AssertionResult"** %17, align 8
  call void @llvm.dbg.declare(metadata %"class.testing::AssertionResult"** %17, metadata !5175, metadata !3948), !dbg !5176
  %18 = load %"class.testing::AssertionResult"*, %"class.testing::AssertionResult"** %17, align 8
  %19 = getelementptr inbounds %"class.testing::AssertionResult", %"class.testing::AssertionResult"* %18, i32 0, i32 1, !dbg !5177
  %20 = call %"class.std::__1::basic_string"* @_ZNK7testing8internal10scoped_ptrINSt3__112basic_stringIcNS2_11char_traitsIcEENS2_9allocatorIcEEEEE3getEv(%"class.testing::internal::scoped_ptr.11"* %19), !dbg !5177
  %21 = icmp ne %"class.std::__1::basic_string"* %20, null, !dbg !5178
  br i1 %21, label %22, label %69, !dbg !5177

; <label>:22                                      ; preds = %1
  %23 = getelementptr inbounds %"class.testing::AssertionResult", %"class.testing::AssertionResult"* %18, i32 0, i32 1, !dbg !5179
  %24 = call %"class.std::__1::basic_string"* @_ZNK7testing8internal10scoped_ptrINSt3__112basic_stringIcNS2_11char_traitsIcEENS2_9allocatorIcEEEEEptEv(%"class.testing::internal::scoped_ptr.11"* %23), !dbg !5179
  store %"class.std::__1::basic_string"* %24, %"class.std::__1::basic_string"** %16, align 8, !dbg !5179
  %25 = load %"class.std::__1::basic_string"*, %"class.std::__1::basic_string"** %16, align 8, !dbg !5179
  store %"class.std::__1::basic_string"* %25, %"class.std::__1::basic_string"** %15, align 8, !dbg !5180
  %26 = load %"class.std::__1::basic_string"*, %"class.std::__1::basic_string"** %15, align 8, !dbg !5180
  store %"class.std::__1::basic_string"* %26, %"class.std::__1::basic_string"** %14, align 8, !dbg !5181
  %27 = load %"class.std::__1::basic_string"*, %"class.std::__1::basic_string"** %14, align 8, !dbg !5181
  store %"class.std::__1::basic_string"* %27, %"class.std::__1::basic_string"** %13, align 8, !dbg !5182
  %28 = load %"class.std::__1::basic_string"*, %"class.std::__1::basic_string"** %13, align 8, !dbg !5182
  %29 = getelementptr inbounds %"class.std::__1::basic_string", %"class.std::__1::basic_string"* %28, i32 0, i32 0, !dbg !5183
  store %"class.std::__1::__compressed_pair"* %29, %"class.std::__1::__compressed_pair"** %12, align 8, !dbg !5183
  %30 = load %"class.std::__1::__compressed_pair"*, %"class.std::__1::__compressed_pair"** %12, align 8, !dbg !5183
  %31 = bitcast %"class.std::__1::__compressed_pair"* %30 to %"class.std::__1::__libcpp_compressed_pair_imp"*, !dbg !5184
  store %"class.std::__1::__libcpp_compressed_pair_imp"* %31, %"class.std::__1::__libcpp_compressed_pair_imp"** %11, align 8, !dbg !5184
  %32 = load %"class.std::__1::__libcpp_compressed_pair_imp"*, %"class.std::__1::__libcpp_compressed_pair_imp"** %11, align 8, !dbg !5184
  %33 = getelementptr inbounds %"class.std::__1::__libcpp_compressed_pair_imp", %"class.std::__1::__libcpp_compressed_pair_imp"* %32, i32 0, i32 0, !dbg !5185
  %34 = getelementptr inbounds %"struct.std::__1::basic_string<char, std::__1::char_traits<char>, std::__1::allocator<char> >::__rep", %"struct.std::__1::basic_string<char, std::__1::char_traits<char>, std::__1::allocator<char> >::__rep"* %33, i32 0, i32 0, !dbg !5186
  %35 = bitcast %union.anon* %34 to %"struct.std::__1::basic_string<char, std::__1::char_traits<char>, std::__1::allocator<char> >::__short"*, !dbg !5186
  %36 = getelementptr inbounds %"struct.std::__1::basic_string<char, std::__1::char_traits<char>, std::__1::allocator<char> >::__short", %"struct.std::__1::basic_string<char, std::__1::char_traits<char>, std::__1::allocator<char> >::__short"* %35, i32 0, i32 0, !dbg !5187
  %37 = bitcast %union.anon.0* %36 to i8*, !dbg !5187
  %38 = load i8, i8* %37, align 8, !dbg !5187
  %39 = zext i8 %38 to i32, !dbg !5183
  %40 = and i32 %39, 1, !dbg !5188
  %41 = icmp ne i32 %40, 0, !dbg !5183
  br i1 %41, label %42, label %53, !dbg !5182

; <label>:42                                      ; preds = %22
  store %"class.std::__1::basic_string"* %27, %"class.std::__1::basic_string"** %5, align 8, !dbg !5189
  %43 = load %"class.std::__1::basic_string"*, %"class.std::__1::basic_string"** %5, align 8, !dbg !5189
  %44 = getelementptr inbounds %"class.std::__1::basic_string", %"class.std::__1::basic_string"* %43, i32 0, i32 0, !dbg !5190
  store %"class.std::__1::__compressed_pair"* %44, %"class.std::__1::__compressed_pair"** %4, align 8, !dbg !5190
  %45 = load %"class.std::__1::__compressed_pair"*, %"class.std::__1::__compressed_pair"** %4, align 8, !dbg !5190
  %46 = bitcast %"class.std::__1::__compressed_pair"* %45 to %"class.std::__1::__libcpp_compressed_pair_imp"*, !dbg !5191
  store %"class.std::__1::__libcpp_compressed_pair_imp"* %46, %"class.std::__1::__libcpp_compressed_pair_imp"** %3, align 8, !dbg !5191
  %47 = load %"class.std::__1::__libcpp_compressed_pair_imp"*, %"class.std::__1::__libcpp_compressed_pair_imp"** %3, align 8, !dbg !5191
  %48 = getelementptr inbounds %"class.std::__1::__libcpp_compressed_pair_imp", %"class.std::__1::__libcpp_compressed_pair_imp"* %47, i32 0, i32 0, !dbg !5192
  %49 = getelementptr inbounds %"struct.std::__1::basic_string<char, std::__1::char_traits<char>, std::__1::allocator<char> >::__rep", %"struct.std::__1::basic_string<char, std::__1::char_traits<char>, std::__1::allocator<char> >::__rep"* %48, i32 0, i32 0, !dbg !5193
  %50 = bitcast %union.anon* %49 to %"struct.std::__1::basic_string<char, std::__1::char_traits<char>, std::__1::allocator<char> >::__long"*, !dbg !5193
  %51 = getelementptr inbounds %"struct.std::__1::basic_string<char, std::__1::char_traits<char>, std::__1::allocator<char> >::__long", %"struct.std::__1::basic_string<char, std::__1::char_traits<char>, std::__1::allocator<char> >::__long"* %50, i32 0, i32 2, !dbg !5194
  %52 = load i8*, i8** %51, align 8, !dbg !5194
  br label %66, !dbg !5182

; <label>:53                                      ; preds = %22
  store %"class.std::__1::basic_string"* %27, %"class.std::__1::basic_string"** %10, align 8, !dbg !5195
  %54 = load %"class.std::__1::basic_string"*, %"class.std::__1::basic_string"** %10, align 8, !dbg !5195
  %55 = getelementptr inbounds %"class.std::__1::basic_string", %"class.std::__1::basic_string"* %54, i32 0, i32 0, !dbg !5196
  store %"class.std::__1::__compressed_pair"* %55, %"class.std::__1::__compressed_pair"** %9, align 8, !dbg !5196
  %56 = load %"class.std::__1::__compressed_pair"*, %"class.std::__1::__compressed_pair"** %9, align 8, !dbg !5196
  %57 = bitcast %"class.std::__1::__compressed_pair"* %56 to %"class.std::__1::__libcpp_compressed_pair_imp"*, !dbg !5197
  store %"class.std::__1::__libcpp_compressed_pair_imp"* %57, %"class.std::__1::__libcpp_compressed_pair_imp"** %8, align 8, !dbg !5197
  %58 = load %"class.std::__1::__libcpp_compressed_pair_imp"*, %"class.std::__1::__libcpp_compressed_pair_imp"** %8, align 8, !dbg !5197
  %59 = getelementptr inbounds %"class.std::__1::__libcpp_compressed_pair_imp", %"class.std::__1::__libcpp_compressed_pair_imp"* %58, i32 0, i32 0, !dbg !5198
  %60 = getelementptr inbounds %"struct.std::__1::basic_string<char, std::__1::char_traits<char>, std::__1::allocator<char> >::__rep", %"struct.std::__1::basic_string<char, std::__1::char_traits<char>, std::__1::allocator<char> >::__rep"* %59, i32 0, i32 0, !dbg !5199
  %61 = bitcast %union.anon* %60 to %"struct.std::__1::basic_string<char, std::__1::char_traits<char>, std::__1::allocator<char> >::__short"*, !dbg !5199
  %62 = getelementptr inbounds %"struct.std::__1::basic_string<char, std::__1::char_traits<char>, std::__1::allocator<char> >::__short", %"struct.std::__1::basic_string<char, std::__1::char_traits<char>, std::__1::allocator<char> >::__short"* %61, i32 0, i32 1, !dbg !5200
  %63 = getelementptr inbounds [23 x i8], [23 x i8]* %62, i64 0, i64 0, !dbg !5196
  store i8* %63, i8** %7, align 8, !dbg !5201
  %64 = load i8*, i8** %7, align 8, !dbg !5202
  store i8* %64, i8** %6, align 8, !dbg !5203
  %65 = load i8*, i8** %6, align 8, !dbg !5204
  br label %66, !dbg !5182

; <label>:66                                      ; preds = %42, %53
  %67 = phi i8* [ %52, %42 ], [ %65, %53 ], !dbg !5182
  store i8* %67, i8** %2, align 8, !dbg !5205
  %68 = load i8*, i8** %2, align 8, !dbg !5206
  br label %70, !dbg !5177

; <label>:69                                      ; preds = %1
  br label %70, !dbg !5177

; <label>:70                                      ; preds = %69, %66
  %71 = phi i8* [ %68, %66 ], [ getelementptr inbounds ([1 x i8], [1 x i8]* @.str.5, i32 0, i32 0), %69 ], !dbg !5177
  ret i8* %71, !dbg !5207
}

; Function Attrs: nounwind ssp uwtable
define linkonce_odr %"class.std::__1::basic_string"* @_ZNK7testing8internal10scoped_ptrINSt3__112basic_stringIcNS2_11char_traitsIcEENS2_9allocatorIcEEEEE3getEv(%"class.testing::internal::scoped_ptr.11"*) #0 align 2 !dbg !5208 {
  %2 = alloca %"class.testing::internal::scoped_ptr.11"*, align 8
  store %"class.testing::internal::scoped_ptr.11"* %0, %"class.testing::internal::scoped_ptr.11"** %2, align 8
  call void @llvm.dbg.declare(metadata %"class.testing::internal::scoped_ptr.11"** %2, metadata !5209, metadata !3948), !dbg !5211
  %3 = load %"class.testing::internal::scoped_ptr.11"*, %"class.testing::internal::scoped_ptr.11"** %2, align 8
  %4 = getelementptr inbounds %"class.testing::internal::scoped_ptr.11", %"class.testing::internal::scoped_ptr.11"* %3, i32 0, i32 0, !dbg !5212
  %5 = load %"class.std::__1::basic_string"*, %"class.std::__1::basic_string"** %4, align 8, !dbg !5212
  ret %"class.std::__1::basic_string"* %5, !dbg !5213
}

; Function Attrs: nounwind ssp uwtable
define linkonce_odr %"class.std::__1::basic_string"* @_ZNK7testing8internal10scoped_ptrINSt3__112basic_stringIcNS2_11char_traitsIcEENS2_9allocatorIcEEEEEptEv(%"class.testing::internal::scoped_ptr.11"*) #0 align 2 !dbg !5214 {
  %2 = alloca %"class.testing::internal::scoped_ptr.11"*, align 8
  store %"class.testing::internal::scoped_ptr.11"* %0, %"class.testing::internal::scoped_ptr.11"** %2, align 8
  call void @llvm.dbg.declare(metadata %"class.testing::internal::scoped_ptr.11"** %2, metadata !5215, metadata !3948), !dbg !5216
  %3 = load %"class.testing::internal::scoped_ptr.11"*, %"class.testing::internal::scoped_ptr.11"** %2, align 8
  %4 = getelementptr inbounds %"class.testing::internal::scoped_ptr.11", %"class.testing::internal::scoped_ptr.11"* %3, i32 0, i32 0, !dbg !5217
  %5 = load %"class.std::__1::basic_string"*, %"class.std::__1::basic_string"** %4, align 8, !dbg !5217
  ret %"class.std::__1::basic_string"* %5, !dbg !5218
}

; Function Attrs: nounwind ssp uwtable
define linkonce_odr void @_ZN7testing7MessageC2Ev(%"class.testing::Message"*) unnamed_addr #0 align 2 !dbg !5219 {
  %2 = alloca %"class.std::__1::ios_base"*, align 8
  call void @llvm.dbg.declare(metadata %"class.std::__1::ios_base"** %2, metadata !5220, metadata !3948), !dbg !5223
  %3 = alloca i64, align 8
  call void @llvm.dbg.declare(metadata i64* %3, metadata !5232, metadata !3948), !dbg !5233
  %4 = alloca i64, align 8
  call void @llvm.dbg.declare(metadata i64* %4, metadata !5234, metadata !3948), !dbg !5235
  %5 = alloca %"class.std::__1::basic_ostream"*, align 8
  call void @llvm.dbg.declare(metadata %"class.std::__1::basic_ostream"** %5, metadata !5236, metadata !3948), !dbg !5237
  %6 = alloca %"class.std::__1::__iom_t5"*, align 8
  call void @llvm.dbg.declare(metadata %"class.std::__1::__iom_t5"** %6, metadata !5238, metadata !3948), !dbg !5239
  %7 = alloca %"class.std::__1::__iom_t5"*, align 8
  call void @llvm.dbg.declare(metadata %"class.std::__1::__iom_t5"** %7, metadata !5240, metadata !3948), !dbg !5243
  %8 = alloca i32, align 4
  call void @llvm.dbg.declare(metadata i32* %8, metadata !5251, metadata !3948), !dbg !5252
  %9 = alloca %"class.std::__1::__iom_t5"*, align 8
  call void @llvm.dbg.declare(metadata %"class.std::__1::__iom_t5"** %9, metadata !5253, metadata !3948), !dbg !5254
  %10 = alloca i32, align 4
  call void @llvm.dbg.declare(metadata i32* %10, metadata !5255, metadata !3948), !dbg !5256
  %11 = alloca %"class.std::__1::__iom_t5", align 4
  %12 = alloca i32, align 4
  call void @llvm.dbg.declare(metadata i32* %12, metadata !5257, metadata !3948), !dbg !5258
  %13 = alloca %"class.std::__1::basic_ostream"*, align 8
  call void @llvm.dbg.declare(metadata %"class.std::__1::basic_ostream"** %13, metadata !5259, metadata !3948), !dbg !5261
  %14 = alloca i8**, align 8
  call void @llvm.dbg.declare(metadata i8*** %14, metadata !5267, metadata !3948), !dbg !5261
  %15 = alloca %"class.std::__1::basic_ios"*, align 8
  call void @llvm.dbg.declare(metadata %"class.std::__1::basic_ios"** %15, metadata !5268, metadata !3948), !dbg !5271
  %16 = alloca %"class.std::__1::basic_streambuf"*, align 8
  call void @llvm.dbg.declare(metadata %"class.std::__1::basic_streambuf"** %16, metadata !5276, metadata !3948), !dbg !5277
  %17 = alloca %"class.std::__1::basic_istream"*, align 8
  call void @llvm.dbg.declare(metadata %"class.std::__1::basic_istream"** %17, metadata !5278, metadata !3948), !dbg !5280
  %18 = alloca i8**, align 8
  call void @llvm.dbg.declare(metadata i8*** %18, metadata !5281, metadata !3948), !dbg !5280
  %19 = alloca %"class.std::__1::basic_streambuf"*, align 8
  call void @llvm.dbg.declare(metadata %"class.std::__1::basic_streambuf"** %19, metadata !5282, metadata !3948), !dbg !5283
  %20 = alloca %"class.std::__1::basic_iostream"*, align 8
  call void @llvm.dbg.declare(metadata %"class.std::__1::basic_iostream"** %20, metadata !5284, metadata !3948), !dbg !5286
  %21 = alloca i8**, align 8
  call void @llvm.dbg.declare(metadata i8*** %21, metadata !5287, metadata !3948), !dbg !5286
  %22 = alloca %"class.std::__1::basic_streambuf"*, align 8
  call void @llvm.dbg.declare(metadata %"class.std::__1::basic_streambuf"** %22, metadata !5288, metadata !3948), !dbg !5289
  %23 = alloca %"class.std::__1::__libcpp_compressed_pair_imp"*, align 8
  call void @llvm.dbg.declare(metadata %"class.std::__1::__libcpp_compressed_pair_imp"** %23, metadata !5290, metadata !3948), !dbg !5293
  %24 = alloca %"class.std::__1::__compressed_pair"*, align 8
  call void @llvm.dbg.declare(metadata %"class.std::__1::__compressed_pair"** %24, metadata !5309, metadata !3948), !dbg !5311
  %25 = alloca %"class.std::__1::basic_string"*, align 8
  call void @llvm.dbg.declare(metadata %"class.std::__1::basic_string"** %25, metadata !5312, metadata !3948), !dbg !5313
  %26 = alloca [3 x i64]*, align 8
  call void @llvm.dbg.declare(metadata [3 x i64]** %26, metadata !5314, metadata !3948), !dbg !5316
  %27 = alloca i32, align 4
  call void @llvm.dbg.declare(metadata i32* %27, metadata !5317, metadata !3948), !dbg !5319
  %28 = alloca %"class.std::__1::allocator"*, align 8
  call void @llvm.dbg.declare(metadata %"class.std::__1::allocator"** %28, metadata !5320, metadata !3948), !dbg !5323
  %29 = alloca %"class.std::__1::__libcpp_compressed_pair_imp"*, align 8
  call void @llvm.dbg.declare(metadata %"class.std::__1::__libcpp_compressed_pair_imp"** %29, metadata !5331, metadata !3948), !dbg !5332
  %30 = alloca %"class.std::__1::__compressed_pair"*, align 8
  call void @llvm.dbg.declare(metadata %"class.std::__1::__compressed_pair"** %30, metadata !5333, metadata !3948), !dbg !5334
  %31 = alloca %"class.std::__1::__compressed_pair"*, align 8
  call void @llvm.dbg.declare(metadata %"class.std::__1::__compressed_pair"** %31, metadata !5335, metadata !3948), !dbg !5336
  %32 = alloca %"class.std::__1::basic_string"*, align 8
  call void @llvm.dbg.declare(metadata %"class.std::__1::basic_string"** %32, metadata !5337, metadata !3948), !dbg !5338
  %33 = alloca %"class.std::__1::basic_string"*, align 8
  call void @llvm.dbg.declare(metadata %"class.std::__1::basic_string"** %33, metadata !5339, metadata !3948), !dbg !5340
  %34 = alloca %"class.std::__1::__libcpp_compressed_pair_imp"*, align 8
  call void @llvm.dbg.declare(metadata %"class.std::__1::__libcpp_compressed_pair_imp"** %34, metadata !5290, metadata !3948), !dbg !5341
  %35 = alloca %"class.std::__1::__compressed_pair"*, align 8
  call void @llvm.dbg.declare(metadata %"class.std::__1::__compressed_pair"** %35, metadata !5309, metadata !3948), !dbg !5347
  %36 = alloca %"class.std::__1::basic_string"*, align 8
  call void @llvm.dbg.declare(metadata %"class.std::__1::basic_string"** %36, metadata !5312, metadata !3948), !dbg !5348
  %37 = alloca [3 x i64]*, align 8
  call void @llvm.dbg.declare(metadata [3 x i64]** %37, metadata !5314, metadata !3948), !dbg !5349
  %38 = alloca i32, align 4
  call void @llvm.dbg.declare(metadata i32* %38, metadata !5317, metadata !3948), !dbg !5350
  %39 = alloca %"class.std::__1::allocator"*, align 8
  call void @llvm.dbg.declare(metadata %"class.std::__1::allocator"** %39, metadata !5320, metadata !3948), !dbg !5351
  %40 = alloca %"class.std::__1::__libcpp_compressed_pair_imp"*, align 8
  call void @llvm.dbg.declare(metadata %"class.std::__1::__libcpp_compressed_pair_imp"** %40, metadata !5331, metadata !3948), !dbg !5356
  %41 = alloca %"class.std::__1::__compressed_pair"*, align 8
  call void @llvm.dbg.declare(metadata %"class.std::__1::__compressed_pair"** %41, metadata !5333, metadata !3948), !dbg !5357
  %42 = alloca %"class.std::__1::__compressed_pair"*, align 8
  call void @llvm.dbg.declare(metadata %"class.std::__1::__compressed_pair"** %42, metadata !5335, metadata !3948), !dbg !5358
  %43 = alloca %"class.std::__1::basic_string"*, align 8
  call void @llvm.dbg.declare(metadata %"class.std::__1::basic_string"** %43, metadata !5337, metadata !3948), !dbg !5359
  %44 = alloca %"class.std::__1::basic_string"*, align 8
  call void @llvm.dbg.declare(metadata %"class.std::__1::basic_string"** %44, metadata !5339, metadata !3948), !dbg !5360
  %45 = alloca %"class.std::__1::basic_stringbuf"*, align 8
  call void @llvm.dbg.declare(metadata %"class.std::__1::basic_stringbuf"** %45, metadata !5361, metadata !3948), !dbg !5362
  %46 = alloca i32, align 4
  call void @llvm.dbg.declare(metadata i32* %46, metadata !5363, metadata !3948), !dbg !5364
  %47 = alloca %"class.std::__1::basic_string", align 8
  %48 = alloca %"class.std::__1::basic_stringbuf"*, align 8
  call void @llvm.dbg.declare(metadata %"class.std::__1::basic_stringbuf"** %48, metadata !5365, metadata !3948), !dbg !5366
  %49 = alloca i32, align 4
  call void @llvm.dbg.declare(metadata i32* %49, metadata !5367, metadata !3948), !dbg !5368
  %50 = alloca %"class.std::__1::ios_base"*, align 8
  call void @llvm.dbg.declare(metadata %"class.std::__1::ios_base"** %50, metadata !5369, metadata !3948), !dbg !5371
  %51 = alloca %"class.std::__1::basic_ios"*, align 8
  call void @llvm.dbg.declare(metadata %"class.std::__1::basic_ios"** %51, metadata !5375, metadata !3948), !dbg !5376
  %52 = alloca %"class.std::__1::basic_stringstream"*, align 8
  call void @llvm.dbg.declare(metadata %"class.std::__1::basic_stringstream"** %52, metadata !5377, metadata !3948), !dbg !5378
  %53 = alloca i32, align 4
  call void @llvm.dbg.declare(metadata i32* %53, metadata !5379, metadata !3948), !dbg !5380
  %54 = alloca %"class.testing::Message"*, align 8
  %55 = alloca %"class.std::__1::__iom_t5", align 4
  store %"class.testing::Message"* %0, %"class.testing::Message"** %54, align 8
  call void @llvm.dbg.declare(metadata %"class.testing::Message"** %54, metadata !5381, metadata !3948), !dbg !5382
  %56 = load %"class.testing::Message"*, %"class.testing::Message"** %54, align 8
  %57 = getelementptr inbounds %"class.testing::Message", %"class.testing::Message"* %56, i32 0, i32 0, !dbg !5383
  %58 = call noalias i8* @_Znwm(i64 280) #9, !dbg !5384
  %59 = bitcast i8* %58 to %"class.std::__1::basic_stringstream"*, !dbg !5384
  store %"class.std::__1::basic_stringstream"* %59, %"class.std::__1::basic_stringstream"** %52, align 8, !dbg !5385
  store i32 24, i32* %53, align 4, !dbg !5385
  %60 = load %"class.std::__1::basic_stringstream"*, %"class.std::__1::basic_stringstream"** %52, align 8, !dbg !5385
  %61 = bitcast %"class.std::__1::basic_stringstream"* %60 to i8*, !dbg !5386
  %62 = getelementptr inbounds i8, i8* %61, i64 128, !dbg !5386
  %63 = bitcast i8* %62 to %"class.std::__1::basic_ios"*, !dbg !5386
  store %"class.std::__1::basic_ios"* %63, %"class.std::__1::basic_ios"** %51, align 8, !dbg !5387
  %64 = load %"class.std::__1::basic_ios"*, %"class.std::__1::basic_ios"** %51, align 8, !dbg !5387
  %65 = bitcast %"class.std::__1::basic_ios"* %64 to %"class.std::__1::ios_base"*, !dbg !5388
  store %"class.std::__1::ios_base"* %65, %"class.std::__1::ios_base"** %50, align 8, !dbg !5389
  %66 = load %"class.std::__1::ios_base"*, %"class.std::__1::ios_base"** %50, align 8, !dbg !5389
  %67 = bitcast %"class.std::__1::ios_base"* %66 to i32 (...)***, !dbg !5390
  store i32 (...)** bitcast (i8** getelementptr inbounds ([4 x i8*], [4 x i8*]* @_ZTVNSt3__18ios_baseE, i64 0, i64 2) to i32 (...)**), i32 (...)*** %67, align 8, !dbg !5390
  %68 = bitcast %"class.std::__1::basic_ios"* %64 to i32 (...)***, !dbg !5388
  store i32 (...)** bitcast (i8** getelementptr inbounds ([4 x i8*], [4 x i8*]* @_ZTVNSt3__19basic_iosIcNS_11char_traitsIcEEEE, i64 0, i64 2) to i32 (...)**), i32 (...)*** %68, align 8, !dbg !5388
  %69 = bitcast %"class.std::__1::basic_stringstream"* %60 to i32 (...)***, !dbg !5386
  store i32 (...)** bitcast (i8** getelementptr inbounds ([15 x i8*], [15 x i8*]* @_ZTVNSt3__118basic_stringstreamIcNS_11char_traitsIcEENS_9allocatorIcEEEE, i64 0, i64 3) to i32 (...)**), i32 (...)*** %69, align 8, !dbg !5386
  %70 = bitcast %"class.std::__1::basic_stringstream"* %60 to i8*, !dbg !5386
  %71 = getelementptr inbounds i8, i8* %70, i64 128, !dbg !5386
  %72 = bitcast i8* %71 to i32 (...)***, !dbg !5386
  store i32 (...)** bitcast (i8** getelementptr inbounds ([15 x i8*], [15 x i8*]* @_ZTVNSt3__118basic_stringstreamIcNS_11char_traitsIcEENS_9allocatorIcEEEE, i64 0, i64 13) to i32 (...)**), i32 (...)*** %72, align 8, !dbg !5386
  %73 = bitcast %"class.std::__1::basic_stringstream"* %60 to i8*, !dbg !5386
  %74 = getelementptr inbounds i8, i8* %73, i64 16, !dbg !5386
  %75 = bitcast i8* %74 to i32 (...)***, !dbg !5386
  store i32 (...)** bitcast (i8** getelementptr inbounds ([15 x i8*], [15 x i8*]* @_ZTVNSt3__118basic_stringstreamIcNS_11char_traitsIcEENS_9allocatorIcEEEE, i64 0, i64 8) to i32 (...)**), i32 (...)*** %75, align 8, !dbg !5386
  %76 = bitcast %"class.std::__1::basic_stringstream"* %60 to %"class.std::__1::basic_iostream"*, !dbg !5386
  %77 = getelementptr inbounds %"class.std::__1::basic_stringstream", %"class.std::__1::basic_stringstream"* %60, i32 0, i32 1, !dbg !5391
  %78 = bitcast %"class.std::__1::basic_stringbuf"* %77 to %"class.std::__1::basic_streambuf"*, !dbg !5392
  store %"class.std::__1::basic_iostream"* %76, %"class.std::__1::basic_iostream"** %20, align 8, !dbg !5393
  store i8** getelementptr inbounds ([10 x i8*], [10 x i8*]* @_ZTTNSt3__118basic_stringstreamIcNS_11char_traitsIcEENS_9allocatorIcEEEE, i64 0, i64 1), i8*** %21, align 8, !dbg !5393
  store %"class.std::__1::basic_streambuf"* %78, %"class.std::__1::basic_streambuf"** %22, align 8, !dbg !5393
  %79 = load %"class.std::__1::basic_iostream"*, %"class.std::__1::basic_iostream"** %20, align 8, !dbg !5393
  %80 = load i8**, i8*** %21, align 8, !dbg !5393
  %81 = bitcast %"class.std::__1::basic_iostream"* %79 to %"class.std::__1::basic_istream"*, !dbg !5394
  %82 = load %"class.std::__1::basic_streambuf"*, %"class.std::__1::basic_streambuf"** %22, align 8, !dbg !5395
  %83 = getelementptr inbounds i8*, i8** %80, i64 1, !dbg !5396
  store %"class.std::__1::basic_istream"* %81, %"class.std::__1::basic_istream"** %17, align 8, !dbg !5396
  store i8** %83, i8*** %18, align 8, !dbg !5396
  store %"class.std::__1::basic_streambuf"* %82, %"class.std::__1::basic_streambuf"** %19, align 8, !dbg !5396
  %84 = load %"class.std::__1::basic_istream"*, %"class.std::__1::basic_istream"** %17, align 8, !dbg !5396
  %85 = load i8**, i8*** %18, align 8, !dbg !5396
  %86 = load i8*, i8** %85, align 8, !dbg !5397
  %87 = bitcast %"class.std::__1::basic_istream"* %84 to i32 (...)***, !dbg !5397
  %88 = bitcast i8* %86 to i32 (...)**, !dbg !5397
  store i32 (...)** %88, i32 (...)*** %87, align 8, !dbg !5397
  %89 = getelementptr inbounds i8*, i8** %85, i64 1, !dbg !5397
  %90 = load i8*, i8** %89, align 8, !dbg !5397
  %91 = bitcast %"class.std::__1::basic_istream"* %84 to i8**, !dbg !5397
  %92 = load i8*, i8** %91, align 8, !dbg !5397
  %93 = getelementptr i8, i8* %92, i64 -24, !dbg !5397
  %94 = bitcast i8* %93 to i64*, !dbg !5397
  %95 = load i64, i64* %94, align 8, !dbg !5397
  %96 = bitcast %"class.std::__1::basic_istream"* %84 to i8*, !dbg !5397
  %97 = getelementptr inbounds i8, i8* %96, i64 %95, !dbg !5397
  %98 = bitcast i8* %97 to i32 (...)***, !dbg !5397
  %99 = bitcast i8* %90 to i32 (...)**, !dbg !5397
  store i32 (...)** %99, i32 (...)*** %98, align 8, !dbg !5397
  %100 = getelementptr inbounds %"class.std::__1::basic_istream", %"class.std::__1::basic_istream"* %84, i32 0, i32 1, !dbg !5398
  store i64 0, i64* %100, align 8, !dbg !5398
  %101 = bitcast %"class.std::__1::basic_istream"* %84 to i8**, !dbg !5399
  %102 = load i8*, i8** %101, align 8, !dbg !5399
  %103 = getelementptr i8, i8* %102, i64 -24, !dbg !5399
  %104 = bitcast i8* %103 to i64*, !dbg !5399
  %105 = load i64, i64* %104, align 8, !dbg !5399
  %106 = bitcast %"class.std::__1::basic_istream"* %84 to i8*, !dbg !5399
  %107 = getelementptr inbounds i8, i8* %106, i64 %105, !dbg !5399
  %108 = bitcast i8* %107 to %"class.std::__1::basic_ios"*, !dbg !5399
  %109 = load %"class.std::__1::basic_streambuf"*, %"class.std::__1::basic_streambuf"** %19, align 8, !dbg !5400
  store %"class.std::__1::basic_ios"* %108, %"class.std::__1::basic_ios"** %15, align 8, !dbg !5399
  store %"class.std::__1::basic_streambuf"* %109, %"class.std::__1::basic_streambuf"** %16, align 8, !dbg !5399
  %110 = load %"class.std::__1::basic_ios"*, %"class.std::__1::basic_ios"** %15, align 8, !dbg !5399
  %111 = bitcast %"class.std::__1::basic_ios"* %110 to %"class.std::__1::ios_base"*, !dbg !5401
  %112 = load %"class.std::__1::basic_streambuf"*, %"class.std::__1::basic_streambuf"** %16, align 8, !dbg !5402
  %113 = bitcast %"class.std::__1::basic_streambuf"* %112 to i8*, !dbg !5402
  call void @_ZNSt3__18ios_base4initEPv(%"class.std::__1::ios_base"* %111, i8* %113) #10, !dbg !5401
  %114 = getelementptr inbounds %"class.std::__1::basic_ios", %"class.std::__1::basic_ios"* %110, i32 0, i32 1, !dbg !5403
  store %"class.std::__1::basic_ostream"* null, %"class.std::__1::basic_ostream"** %114, align 8, !dbg !5404
  %115 = call i32 @_ZNSt3__111char_traitsIcE3eofEv() #10, !dbg !5405
  %116 = getelementptr inbounds %"class.std::__1::basic_ios", %"class.std::__1::basic_ios"* %110, i32 0, i32 2, !dbg !5406
  store i32 %115, i32* %116, align 8, !dbg !5407
  %117 = bitcast %"class.std::__1::basic_iostream"* %79 to i8*, !dbg !5394
  %118 = getelementptr inbounds i8, i8* %117, i64 16, !dbg !5394
  %119 = bitcast i8* %118 to %"class.std::__1::basic_ostream"*, !dbg !5394
  %120 = getelementptr inbounds i8*, i8** %80, i64 3, !dbg !5408
  store %"class.std::__1::basic_ostream"* %119, %"class.std::__1::basic_ostream"** %13, align 8, !dbg !5408
  store i8** %120, i8*** %14, align 8, !dbg !5408
  %121 = load %"class.std::__1::basic_ostream"*, %"class.std::__1::basic_ostream"** %13, align 8, !dbg !5408
  %122 = load i8**, i8*** %14, align 8, !dbg !5408
  %123 = load i8*, i8** %122, align 8, !dbg !5409
  %124 = bitcast %"class.std::__1::basic_ostream"* %121 to i32 (...)***, !dbg !5409
  %125 = bitcast i8* %123 to i32 (...)**, !dbg !5409
  store i32 (...)** %125, i32 (...)*** %124, align 8, !dbg !5409
  %126 = getelementptr inbounds i8*, i8** %122, i64 1, !dbg !5409
  %127 = load i8*, i8** %126, align 8, !dbg !5409
  %128 = bitcast %"class.std::__1::basic_ostream"* %121 to i8**, !dbg !5409
  %129 = load i8*, i8** %128, align 8, !dbg !5409
  %130 = getelementptr i8, i8* %129, i64 -24, !dbg !5409
  %131 = bitcast i8* %130 to i64*, !dbg !5409
  %132 = load i64, i64* %131, align 8, !dbg !5409
  %133 = bitcast %"class.std::__1::basic_ostream"* %121 to i8*, !dbg !5409
  %134 = getelementptr inbounds i8, i8* %133, i64 %132, !dbg !5409
  %135 = bitcast i8* %134 to i32 (...)***, !dbg !5409
  %136 = bitcast i8* %127 to i32 (...)**, !dbg !5409
  store i32 (...)** %136, i32 (...)*** %135, align 8, !dbg !5409
  %137 = load i8*, i8** %80, align 8, !dbg !5394
  %138 = bitcast %"class.std::__1::basic_iostream"* %79 to i32 (...)***, !dbg !5394
  %139 = bitcast i8* %137 to i32 (...)**, !dbg !5394
  store i32 (...)** %139, i32 (...)*** %138, align 8, !dbg !5394
  %140 = getelementptr inbounds i8*, i8** %80, i64 5, !dbg !5394
  %141 = load i8*, i8** %140, align 8, !dbg !5394
  %142 = bitcast %"class.std::__1::basic_iostream"* %79 to i8**, !dbg !5394
  %143 = load i8*, i8** %142, align 8, !dbg !5394
  %144 = getelementptr i8, i8* %143, i64 -24, !dbg !5394
  %145 = bitcast i8* %144 to i64*, !dbg !5394
  %146 = load i64, i64* %145, align 8, !dbg !5394
  %147 = bitcast %"class.std::__1::basic_iostream"* %79 to i8*, !dbg !5394
  %148 = getelementptr inbounds i8, i8* %147, i64 %146, !dbg !5394
  %149 = bitcast i8* %148 to i32 (...)***, !dbg !5394
  %150 = bitcast i8* %141 to i32 (...)**, !dbg !5394
  store i32 (...)** %150, i32 (...)*** %149, align 8, !dbg !5394
  %151 = getelementptr inbounds i8*, i8** %80, i64 6, !dbg !5394
  %152 = load i8*, i8** %151, align 8, !dbg !5394
  %153 = bitcast %"class.std::__1::basic_iostream"* %79 to i8*, !dbg !5394
  %154 = getelementptr inbounds i8, i8* %153, i64 16, !dbg !5394
  %155 = bitcast i8* %154 to i32 (...)***, !dbg !5394
  %156 = bitcast i8* %152 to i32 (...)**, !dbg !5394
  store i32 (...)** %156, i32 (...)*** %155, align 8, !dbg !5394
  %157 = bitcast %"class.std::__1::basic_stringstream"* %60 to i32 (...)***, !dbg !5386
  store i32 (...)** bitcast (i8** getelementptr inbounds ([15 x i8*], [15 x i8*]* @_ZTVNSt3__118basic_stringstreamIcNS_11char_traitsIcEENS_9allocatorIcEEEE, i64 0, i64 3) to i32 (...)**), i32 (...)*** %157, align 8, !dbg !5386
  %158 = bitcast %"class.std::__1::basic_stringstream"* %60 to i8*, !dbg !5386
  %159 = getelementptr inbounds i8, i8* %158, i64 128, !dbg !5386
  %160 = bitcast i8* %159 to i32 (...)***, !dbg !5386
  store i32 (...)** bitcast (i8** getelementptr inbounds ([15 x i8*], [15 x i8*]* @_ZTVNSt3__118basic_stringstreamIcNS_11char_traitsIcEENS_9allocatorIcEEEE, i64 0, i64 13) to i32 (...)**), i32 (...)*** %160, align 8, !dbg !5386
  %161 = bitcast %"class.std::__1::basic_stringstream"* %60 to i8*, !dbg !5386
  %162 = getelementptr inbounds i8, i8* %161, i64 16, !dbg !5386
  %163 = bitcast i8* %162 to i32 (...)***, !dbg !5386
  store i32 (...)** bitcast (i8** getelementptr inbounds ([15 x i8*], [15 x i8*]* @_ZTVNSt3__118basic_stringstreamIcNS_11char_traitsIcEENS_9allocatorIcEEEE, i64 0, i64 8) to i32 (...)**), i32 (...)*** %163, align 8, !dbg !5386
  %164 = getelementptr inbounds %"class.std::__1::basic_stringstream", %"class.std::__1::basic_stringstream"* %60, i32 0, i32 1, !dbg !5410
  %165 = load i32, i32* %53, align 4, !dbg !5411
  store %"class.std::__1::basic_stringbuf"* %164, %"class.std::__1::basic_stringbuf"** %48, align 8, !dbg !5410
  store i32 %165, i32* %49, align 4, !dbg !5410
  %166 = load %"class.std::__1::basic_stringbuf"*, %"class.std::__1::basic_stringbuf"** %48, align 8, !dbg !5410
  %167 = load i32, i32* %49, align 4, !dbg !5412
  store %"class.std::__1::basic_stringbuf"* %166, %"class.std::__1::basic_stringbuf"** %45, align 8, !dbg !5412
  store i32 %167, i32* %46, align 4, !dbg !5412
  %168 = load %"class.std::__1::basic_stringbuf"*, %"class.std::__1::basic_stringbuf"** %45, align 8, !dbg !5412
  %169 = bitcast %"class.std::__1::basic_stringbuf"* %168 to %"class.std::__1::basic_streambuf"*, !dbg !5413
  call void @_ZNSt3__115basic_streambufIcNS_11char_traitsIcEEEC2Ev(%"class.std::__1::basic_streambuf"* %169) #10, !dbg !5414
  %170 = bitcast %"class.std::__1::basic_stringbuf"* %168 to i32 (...)***, !dbg !5413
  store i32 (...)** bitcast (i8** getelementptr inbounds ([16 x i8*], [16 x i8*]* @_ZTVNSt3__115basic_stringbufIcNS_11char_traitsIcEENS_9allocatorIcEEEE, i64 0, i64 2) to i32 (...)**), i32 (...)*** %170, align 8, !dbg !5413
  %171 = getelementptr inbounds %"class.std::__1::basic_stringbuf", %"class.std::__1::basic_stringbuf"* %168, i32 0, i32 1, !dbg !5414
  store %"class.std::__1::basic_string"* %171, %"class.std::__1::basic_string"** %44, align 8, !dbg !5414
  %172 = load %"class.std::__1::basic_string"*, %"class.std::__1::basic_string"** %44, align 8, !dbg !5414
  store %"class.std::__1::basic_string"* %172, %"class.std::__1::basic_string"** %43, align 8, !dbg !5415
  %173 = load %"class.std::__1::basic_string"*, %"class.std::__1::basic_string"** %43, align 8, !dbg !5415
  %174 = bitcast %"class.std::__1::basic_string"* %173 to %"class.std::__1::__basic_string_common"*, !dbg !5416
  %175 = getelementptr inbounds %"class.std::__1::basic_string", %"class.std::__1::basic_string"* %173, i32 0, i32 0, !dbg !5417
  store %"class.std::__1::__compressed_pair"* %175, %"class.std::__1::__compressed_pair"** %42, align 8, !dbg !5417
  %176 = load %"class.std::__1::__compressed_pair"*, %"class.std::__1::__compressed_pair"** %42, align 8, !dbg !5417
  store %"class.std::__1::__compressed_pair"* %176, %"class.std::__1::__compressed_pair"** %41, align 8, !dbg !5418
  %177 = load %"class.std::__1::__compressed_pair"*, %"class.std::__1::__compressed_pair"** %41, align 8, !dbg !5418
  %178 = bitcast %"class.std::__1::__compressed_pair"* %177 to %"class.std::__1::__libcpp_compressed_pair_imp"*, !dbg !5419
  store %"class.std::__1::__libcpp_compressed_pair_imp"* %178, %"class.std::__1::__libcpp_compressed_pair_imp"** %40, align 8, !dbg !5420
  %179 = load %"class.std::__1::__libcpp_compressed_pair_imp"*, %"class.std::__1::__libcpp_compressed_pair_imp"** %40, align 8, !dbg !5420
  %180 = bitcast %"class.std::__1::__libcpp_compressed_pair_imp"* %179 to %"class.std::__1::allocator"*, !dbg !5421
  store %"class.std::__1::allocator"* %180, %"class.std::__1::allocator"** %39, align 8, !dbg !5422
  %181 = load %"class.std::__1::allocator"*, %"class.std::__1::allocator"** %39, align 8, !dbg !5422
  %182 = getelementptr inbounds %"class.std::__1::__libcpp_compressed_pair_imp", %"class.std::__1::__libcpp_compressed_pair_imp"* %179, i32 0, i32 0, !dbg !5423
  %183 = bitcast %"struct.std::__1::basic_string<char, std::__1::char_traits<char>, std::__1::allocator<char> >::__rep"* %182 to i8*, !dbg !5423
  call void @llvm.memset.p0i8.i64(i8* %183, i8 0, i64 24, i32 8, i1 false) #10, !dbg !5423
  store %"class.std::__1::basic_string"* %173, %"class.std::__1::basic_string"** %36, align 8, !dbg !5424
  %184 = load %"class.std::__1::basic_string"*, %"class.std::__1::basic_string"** %36, align 8, !dbg !5424
  %185 = getelementptr inbounds %"class.std::__1::basic_string", %"class.std::__1::basic_string"* %184, i32 0, i32 0, !dbg !5425
  store %"class.std::__1::__compressed_pair"* %185, %"class.std::__1::__compressed_pair"** %35, align 8, !dbg !5425
  %186 = load %"class.std::__1::__compressed_pair"*, %"class.std::__1::__compressed_pair"** %35, align 8, !dbg !5425
  %187 = bitcast %"class.std::__1::__compressed_pair"* %186 to %"class.std::__1::__libcpp_compressed_pair_imp"*, !dbg !5426
  store %"class.std::__1::__libcpp_compressed_pair_imp"* %187, %"class.std::__1::__libcpp_compressed_pair_imp"** %34, align 8, !dbg !5426
  %188 = load %"class.std::__1::__libcpp_compressed_pair_imp"*, %"class.std::__1::__libcpp_compressed_pair_imp"** %34, align 8, !dbg !5426
  %189 = getelementptr inbounds %"class.std::__1::__libcpp_compressed_pair_imp", %"class.std::__1::__libcpp_compressed_pair_imp"* %188, i32 0, i32 0, !dbg !5427
  %190 = getelementptr inbounds %"struct.std::__1::basic_string<char, std::__1::char_traits<char>, std::__1::allocator<char> >::__rep", %"struct.std::__1::basic_string<char, std::__1::char_traits<char>, std::__1::allocator<char> >::__rep"* %189, i32 0, i32 0, !dbg !5428
  %191 = bitcast %union.anon* %190 to %"struct.std::__1::basic_string<char, std::__1::char_traits<char>, std::__1::allocator<char> >::__raw"*, !dbg !5428
  %192 = getelementptr inbounds %"struct.std::__1::basic_string<char, std::__1::char_traits<char>, std::__1::allocator<char> >::__raw", %"struct.std::__1::basic_string<char, std::__1::char_traits<char>, std::__1::allocator<char> >::__raw"* %191, i32 0, i32 0, !dbg !5429
  store [3 x i64]* %192, [3 x i64]** %37, align 8, !dbg !5349
  store i32 0, i32* %38, align 4, !dbg !5350
  br label %193, !dbg !5430

; <label>:193                                     ; preds = %196, %1
  %194 = load i32, i32* %38, align 4, !dbg !5431
  %195 = icmp ult i32 %194, 3, !dbg !5433
  br i1 %195, label %196, label %203, !dbg !5434

; <label>:196                                     ; preds = %193
  %197 = load i32, i32* %38, align 4, !dbg !5435
  %198 = zext i32 %197 to i64, !dbg !5436
  %199 = load [3 x i64]*, [3 x i64]** %37, align 8, !dbg !5436
  %200 = getelementptr inbounds [3 x i64], [3 x i64]* %199, i64 0, i64 %198, !dbg !5436
  store i64 0, i64* %200, align 8, !dbg !5437
  %201 = load i32, i32* %38, align 4, !dbg !5438
  %202 = add i32 %201, 1, !dbg !5438
  store i32 %202, i32* %38, align 4, !dbg !5438
  br label %193, !dbg !5439

; <label>:203                                     ; preds = %193
  %204 = getelementptr inbounds %"class.std::__1::basic_stringbuf", %"class.std::__1::basic_stringbuf"* %168, i32 0, i32 2, !dbg !5440
  store i8* null, i8** %204, align 8, !dbg !5440
  %205 = getelementptr inbounds %"class.std::__1::basic_stringbuf", %"class.std::__1::basic_stringbuf"* %168, i32 0, i32 3, !dbg !5441
  %206 = load i32, i32* %46, align 4, !dbg !5442
  store i32 %206, i32* %205, align 8, !dbg !5441
  store %"class.std::__1::basic_string"* %47, %"class.std::__1::basic_string"** %33, align 8, !dbg !5443
  %207 = load %"class.std::__1::basic_string"*, %"class.std::__1::basic_string"** %33, align 8, !dbg !5443
  store %"class.std::__1::basic_string"* %207, %"class.std::__1::basic_string"** %32, align 8, !dbg !5444
  %208 = load %"class.std::__1::basic_string"*, %"class.std::__1::basic_string"** %32, align 8, !dbg !5444
  %209 = bitcast %"class.std::__1::basic_string"* %208 to %"class.std::__1::__basic_string_common"*, !dbg !5445
  %210 = getelementptr inbounds %"class.std::__1::basic_string", %"class.std::__1::basic_string"* %208, i32 0, i32 0, !dbg !5446
  store %"class.std::__1::__compressed_pair"* %210, %"class.std::__1::__compressed_pair"** %31, align 8, !dbg !5446
  %211 = load %"class.std::__1::__compressed_pair"*, %"class.std::__1::__compressed_pair"** %31, align 8, !dbg !5446
  store %"class.std::__1::__compressed_pair"* %211, %"class.std::__1::__compressed_pair"** %30, align 8, !dbg !5447
  %212 = load %"class.std::__1::__compressed_pair"*, %"class.std::__1::__compressed_pair"** %30, align 8, !dbg !5447
  %213 = bitcast %"class.std::__1::__compressed_pair"* %212 to %"class.std::__1::__libcpp_compressed_pair_imp"*, !dbg !5448
  store %"class.std::__1::__libcpp_compressed_pair_imp"* %213, %"class.std::__1::__libcpp_compressed_pair_imp"** %29, align 8, !dbg !5449
  %214 = load %"class.std::__1::__libcpp_compressed_pair_imp"*, %"class.std::__1::__libcpp_compressed_pair_imp"** %29, align 8, !dbg !5449
  %215 = bitcast %"class.std::__1::__libcpp_compressed_pair_imp"* %214 to %"class.std::__1::allocator"*, !dbg !5450
  store %"class.std::__1::allocator"* %215, %"class.std::__1::allocator"** %28, align 8, !dbg !5451
  %216 = load %"class.std::__1::allocator"*, %"class.std::__1::allocator"** %28, align 8, !dbg !5451
  %217 = getelementptr inbounds %"class.std::__1::__libcpp_compressed_pair_imp", %"class.std::__1::__libcpp_compressed_pair_imp"* %214, i32 0, i32 0, !dbg !5452
  %218 = bitcast %"struct.std::__1::basic_string<char, std::__1::char_traits<char>, std::__1::allocator<char> >::__rep"* %217 to i8*, !dbg !5452
  call void @llvm.memset.p0i8.i64(i8* %218, i8 0, i64 24, i32 8, i1 false) #10, !dbg !5452
  store %"class.std::__1::basic_string"* %208, %"class.std::__1::basic_string"** %25, align 8, !dbg !5453
  %219 = load %"class.std::__1::basic_string"*, %"class.std::__1::basic_string"** %25, align 8, !dbg !5453
  %220 = getelementptr inbounds %"class.std::__1::basic_string", %"class.std::__1::basic_string"* %219, i32 0, i32 0, !dbg !5454
  store %"class.std::__1::__compressed_pair"* %220, %"class.std::__1::__compressed_pair"** %24, align 8, !dbg !5454
  %221 = load %"class.std::__1::__compressed_pair"*, %"class.std::__1::__compressed_pair"** %24, align 8, !dbg !5454
  %222 = bitcast %"class.std::__1::__compressed_pair"* %221 to %"class.std::__1::__libcpp_compressed_pair_imp"*, !dbg !5455
  store %"class.std::__1::__libcpp_compressed_pair_imp"* %222, %"class.std::__1::__libcpp_compressed_pair_imp"** %23, align 8, !dbg !5455
  %223 = load %"class.std::__1::__libcpp_compressed_pair_imp"*, %"class.std::__1::__libcpp_compressed_pair_imp"** %23, align 8, !dbg !5455
  %224 = getelementptr inbounds %"class.std::__1::__libcpp_compressed_pair_imp", %"class.std::__1::__libcpp_compressed_pair_imp"* %223, i32 0, i32 0, !dbg !5456
  %225 = getelementptr inbounds %"struct.std::__1::basic_string<char, std::__1::char_traits<char>, std::__1::allocator<char> >::__rep", %"struct.std::__1::basic_string<char, std::__1::char_traits<char>, std::__1::allocator<char> >::__rep"* %224, i32 0, i32 0, !dbg !5457
  %226 = bitcast %union.anon* %225 to %"struct.std::__1::basic_string<char, std::__1::char_traits<char>, std::__1::allocator<char> >::__raw"*, !dbg !5457
  %227 = getelementptr inbounds %"struct.std::__1::basic_string<char, std::__1::char_traits<char>, std::__1::allocator<char> >::__raw", %"struct.std::__1::basic_string<char, std::__1::char_traits<char>, std::__1::allocator<char> >::__raw"* %226, i32 0, i32 0, !dbg !5458
  store [3 x i64]* %227, [3 x i64]** %26, align 8, !dbg !5316
  store i32 0, i32* %27, align 4, !dbg !5319
  br label %228, !dbg !5459

; <label>:228                                     ; preds = %231, %203
  %229 = load i32, i32* %27, align 4, !dbg !5460
  %230 = icmp ult i32 %229, 3, !dbg !5461
  br i1 %230, label %231, label %238, !dbg !5462

; <label>:231                                     ; preds = %228
  %232 = load i32, i32* %27, align 4, !dbg !5463
  %233 = zext i32 %232 to i64, !dbg !5464
  %234 = load [3 x i64]*, [3 x i64]** %26, align 8, !dbg !5464
  %235 = getelementptr inbounds [3 x i64], [3 x i64]* %234, i64 0, i64 %233, !dbg !5464
  store i64 0, i64* %235, align 8, !dbg !5465
  %236 = load i32, i32* %27, align 4, !dbg !5466
  %237 = add i32 %236, 1, !dbg !5466
  store i32 %237, i32* %27, align 4, !dbg !5466
  br label %228, !dbg !5467

; <label>:238                                     ; preds = %228
  call void @_ZNSt3__115basic_stringbufIcNS_11char_traitsIcEENS_9allocatorIcEEE3strERKNS_12basic_stringIcS2_S4_EE(%"class.std::__1::basic_stringbuf"* %168, %"class.std::__1::basic_string"* dereferenceable(24) %47) #10, !dbg !5468
  call void @_ZNSt3__112basic_stringIcNS_11char_traitsIcEENS_9allocatorIcEEED1Ev(%"class.std::__1::basic_string"* %47) #10, !dbg !5468
  call void @_ZN7testing8internal10scoped_ptrINSt3__118basic_stringstreamIcNS2_11char_traitsIcEENS2_9allocatorIcEEEEEC1EPS8_(%"class.testing::internal::scoped_ptr.12"* %57, %"class.std::__1::basic_stringstream"* %59), !dbg !5383
  %239 = getelementptr inbounds %"class.testing::Message", %"class.testing::Message"* %56, i32 0, i32 0, !dbg !5469
  %240 = call dereferenceable(280) %"class.std::__1::basic_stringstream"* @_ZNK7testing8internal10scoped_ptrINSt3__118basic_stringstreamIcNS2_11char_traitsIcEENS2_9allocatorIcEEEEEdeEv(%"class.testing::internal::scoped_ptr.12"* %239), !dbg !5470
  %241 = bitcast %"class.std::__1::basic_stringstream"* %240 to i8*, !dbg !5470
  %242 = getelementptr inbounds i8, i8* %241, i64 16, !dbg !5470
  %243 = bitcast i8* %242 to %"class.std::__1::basic_ostream"*, !dbg !5470
  store i32 17, i32* %12, align 4, !dbg !5471
  %244 = load i32, i32* %12, align 4, !dbg !5472
  store %"class.std::__1::__iom_t5"* %11, %"class.std::__1::__iom_t5"** %9, align 8, !dbg !5473
  store i32 %244, i32* %10, align 4, !dbg !5473
  %245 = load %"class.std::__1::__iom_t5"*, %"class.std::__1::__iom_t5"** %9, align 8, !dbg !5473
  %246 = load i32, i32* %10, align 4, !dbg !5474
  store %"class.std::__1::__iom_t5"* %245, %"class.std::__1::__iom_t5"** %7, align 8, !dbg !5474
  store i32 %246, i32* %8, align 4, !dbg !5474
  %247 = load %"class.std::__1::__iom_t5"*, %"class.std::__1::__iom_t5"** %7, align 8, !dbg !5474
  %248 = getelementptr inbounds %"class.std::__1::__iom_t5", %"class.std::__1::__iom_t5"* %247, i32 0, i32 0, !dbg !5475
  %249 = load i32, i32* %8, align 4, !dbg !5476
  store i32 %249, i32* %248, align 4, !dbg !5475
  %250 = getelementptr inbounds %"class.std::__1::__iom_t5", %"class.std::__1::__iom_t5"* %11, i32 0, i32 0, !dbg !5477
  %251 = load i32, i32* %250, align 4, !dbg !5477
  %252 = getelementptr inbounds %"class.std::__1::__iom_t5", %"class.std::__1::__iom_t5"* %55, i32 0, i32 0, !dbg !5471
  store i32 %251, i32* %252, align 4, !dbg !5471
  store %"class.std::__1::basic_ostream"* %243, %"class.std::__1::basic_ostream"** %5, align 8, !dbg !5478
  store %"class.std::__1::__iom_t5"* %55, %"class.std::__1::__iom_t5"** %6, align 8, !dbg !5478
  %253 = load %"class.std::__1::basic_ostream"*, %"class.std::__1::basic_ostream"** %5, align 8, !dbg !5479
  %254 = bitcast %"class.std::__1::basic_ostream"* %253 to i8**, !dbg !5479
  %255 = load i8*, i8** %254, align 8, !dbg !5479
  %256 = getelementptr i8, i8* %255, i64 -24, !dbg !5479
  %257 = bitcast i8* %256 to i64*, !dbg !5479
  %258 = load i64, i64* %257, align 8, !dbg !5479
  %259 = bitcast %"class.std::__1::basic_ostream"* %253 to i8*, !dbg !5479
  %260 = getelementptr inbounds i8, i8* %259, i64 %258, !dbg !5479
  %261 = bitcast i8* %260 to %"class.std::__1::ios_base"*, !dbg !5479
  %262 = load %"class.std::__1::__iom_t5"*, %"class.std::__1::__iom_t5"** %6, align 8, !dbg !5480
  %263 = getelementptr inbounds %"class.std::__1::__iom_t5", %"class.std::__1::__iom_t5"* %262, i32 0, i32 0, !dbg !5481
  %264 = load i32, i32* %263, align 4, !dbg !5481
  %265 = sext i32 %264 to i64, !dbg !5480
  store %"class.std::__1::ios_base"* %261, %"class.std::__1::ios_base"** %2, align 8, !dbg !5479
  store i64 %265, i64* %3, align 8, !dbg !5479
  %266 = load %"class.std::__1::ios_base"*, %"class.std::__1::ios_base"** %2, align 8, !dbg !5479
  %267 = getelementptr inbounds %"class.std::__1::ios_base", %"class.std::__1::ios_base"* %266, i32 0, i32 2, !dbg !5482
  %268 = load i64, i64* %267, align 8, !dbg !5482
  store i64 %268, i64* %4, align 8, !dbg !5235
  %269 = load i64, i64* %3, align 8, !dbg !5483
  %270 = getelementptr inbounds %"class.std::__1::ios_base", %"class.std::__1::ios_base"* %266, i32 0, i32 2, !dbg !5484
  store i64 %269, i64* %270, align 8, !dbg !5485
  %271 = load i64, i64* %4, align 8, !dbg !5486
  %272 = load %"class.std::__1::basic_ostream"*, %"class.std::__1::basic_ostream"** %5, align 8, !dbg !5487
  ret void, !dbg !5488
}

; Function Attrs: nounwind ssp uwtable
define linkonce_odr void @_ZN7testing8internal10scoped_ptrINSt3__118basic_stringstreamIcNS2_11char_traitsIcEENS2_9allocatorIcEEEEEC1EPS8_(%"class.testing::internal::scoped_ptr.12"*, %"class.std::__1::basic_stringstream"*) unnamed_addr #0 align 2 !dbg !5489 {
  %3 = alloca %"class.testing::internal::scoped_ptr.12"*, align 8
  %4 = alloca %"class.std::__1::basic_stringstream"*, align 8
  store %"class.testing::internal::scoped_ptr.12"* %0, %"class.testing::internal::scoped_ptr.12"** %3, align 8
  call void @llvm.dbg.declare(metadata %"class.testing::internal::scoped_ptr.12"** %3, metadata !5490, metadata !3948), !dbg !5492
  store %"class.std::__1::basic_stringstream"* %1, %"class.std::__1::basic_stringstream"** %4, align 8
  call void @llvm.dbg.declare(metadata %"class.std::__1::basic_stringstream"** %4, metadata !5493, metadata !3948), !dbg !5494
  %5 = load %"class.testing::internal::scoped_ptr.12"*, %"class.testing::internal::scoped_ptr.12"** %3, align 8
  %6 = load %"class.std::__1::basic_stringstream"*, %"class.std::__1::basic_stringstream"** %4, align 8, !dbg !5495
  call void @_ZN7testing8internal10scoped_ptrINSt3__118basic_stringstreamIcNS2_11char_traitsIcEENS2_9allocatorIcEEEEEC2EPS8_(%"class.testing::internal::scoped_ptr.12"* %5, %"class.std::__1::basic_stringstream"* %6), !dbg !5495
  ret void, !dbg !5496
}

; Function Attrs: nounwind ssp uwtable
define linkonce_odr dereferenceable(280) %"class.std::__1::basic_stringstream"* @_ZNK7testing8internal10scoped_ptrINSt3__118basic_stringstreamIcNS2_11char_traitsIcEENS2_9allocatorIcEEEEEdeEv(%"class.testing::internal::scoped_ptr.12"*) #0 align 2 !dbg !5497 {
  %2 = alloca %"class.testing::internal::scoped_ptr.12"*, align 8
  store %"class.testing::internal::scoped_ptr.12"* %0, %"class.testing::internal::scoped_ptr.12"** %2, align 8
  call void @llvm.dbg.declare(metadata %"class.testing::internal::scoped_ptr.12"** %2, metadata !5498, metadata !3948), !dbg !5500
  %3 = load %"class.testing::internal::scoped_ptr.12"*, %"class.testing::internal::scoped_ptr.12"** %2, align 8
  %4 = getelementptr inbounds %"class.testing::internal::scoped_ptr.12", %"class.testing::internal::scoped_ptr.12"* %3, i32 0, i32 0, !dbg !5501
  %5 = load %"class.std::__1::basic_stringstream"*, %"class.std::__1::basic_stringstream"** %4, align 8, !dbg !5501
  ret %"class.std::__1::basic_stringstream"* %5, !dbg !5502
}

; Function Attrs: nounwind
declare void @_ZNSt3__114basic_iostreamIcNS_11char_traitsIcEEED1Ev(%"class.std::__1::basic_iostream"*) #5

; Function Attrs: nounwind
declare void @_ZNSt3__114basic_iostreamIcNS_11char_traitsIcEEED0Ev(%"class.std::__1::basic_iostream"*) #5

; Function Attrs: nounwind
declare void @_ZThn16_NSt3__114basic_iostreamIcNS_11char_traitsIcEEED1Ev(%"class.std::__1::basic_iostream"*) #5

; Function Attrs: nounwind
declare void @_ZThn16_NSt3__114basic_iostreamIcNS_11char_traitsIcEEED0Ev(%"class.std::__1::basic_iostream"*) #5

; Function Attrs: nounwind
declare void @_ZTv0_n24_NSt3__114basic_iostreamIcNS_11char_traitsIcEEED1Ev(%"class.std::__1::basic_iostream"*) #5

; Function Attrs: nounwind
declare void @_ZTv0_n24_NSt3__114basic_iostreamIcNS_11char_traitsIcEEED0Ev(%"class.std::__1::basic_iostream"*) #5

; Function Attrs: nounwind
declare void @_ZNSt3__113basic_istreamIcNS_11char_traitsIcEEED1Ev(%"class.std::__1::basic_istream"*) #5

; Function Attrs: nounwind
declare void @_ZNSt3__113basic_istreamIcNS_11char_traitsIcEEED0Ev(%"class.std::__1::basic_istream"*) #5

; Function Attrs: nounwind
declare void @_ZTv0_n24_NSt3__113basic_istreamIcNS_11char_traitsIcEEED1Ev(%"class.std::__1::basic_istream"*) #5

; Function Attrs: nounwind
declare void @_ZTv0_n24_NSt3__113basic_istreamIcNS_11char_traitsIcEEED0Ev(%"class.std::__1::basic_istream"*) #5

; Function Attrs: nounwind
declare void @_ZNSt3__113basic_ostreamIcNS_11char_traitsIcEEED1Ev(%"class.std::__1::basic_ostream"*) #5

; Function Attrs: nounwind
declare void @_ZNSt3__113basic_ostreamIcNS_11char_traitsIcEEED0Ev(%"class.std::__1::basic_ostream"*) #5

; Function Attrs: nounwind
declare void @_ZTv0_n24_NSt3__113basic_ostreamIcNS_11char_traitsIcEEED1Ev(%"class.std::__1::basic_ostream"*) #5

; Function Attrs: nounwind
declare void @_ZTv0_n24_NSt3__113basic_ostreamIcNS_11char_traitsIcEEED0Ev(%"class.std::__1::basic_ostream"*) #5

; Function Attrs: inlinehint nounwind ssp uwtable
define linkonce_odr void @_ZNSt3__118basic_stringstreamIcNS_11char_traitsIcEENS_9allocatorIcEEED1Ev(%"class.std::__1::basic_stringstream"*) unnamed_addr #3 align 2 !dbg !5503 {
  %2 = alloca %"class.std::__1::basic_stringstream"*, align 8
  store %"class.std::__1::basic_stringstream"* %0, %"class.std::__1::basic_stringstream"** %2, align 8
  call void @llvm.dbg.declare(metadata %"class.std::__1::basic_stringstream"** %2, metadata !5507, metadata !3948), !dbg !5508
  %3 = load %"class.std::__1::basic_stringstream"*, %"class.std::__1::basic_stringstream"** %2, align 8
  call void @_ZNSt3__118basic_stringstreamIcNS_11char_traitsIcEENS_9allocatorIcEEED2Ev(%"class.std::__1::basic_stringstream"* %3, i8** getelementptr inbounds ([10 x i8*], [10 x i8*]* @_ZTTNSt3__118basic_stringstreamIcNS_11char_traitsIcEENS_9allocatorIcEEEE, i64 0, i64 0)) #10, !dbg !5509
  %4 = bitcast %"class.std::__1::basic_stringstream"* %3 to i8*, !dbg !5509
  %5 = getelementptr inbounds i8, i8* %4, i64 128, !dbg !5509
  %6 = bitcast i8* %5 to %"class.std::__1::basic_ios"*, !dbg !5509
  call void @_ZNSt3__19basic_iosIcNS_11char_traitsIcEEED2Ev(%"class.std::__1::basic_ios"* %6) #10, !dbg !5509
  ret void, !dbg !5509
}

; Function Attrs: inlinehint nounwind ssp uwtable
define linkonce_odr void @_ZNSt3__118basic_stringstreamIcNS_11char_traitsIcEENS_9allocatorIcEEED0Ev(%"class.std::__1::basic_stringstream"*) unnamed_addr #3 align 2 !dbg !5510 {
  %2 = alloca %"class.std::__1::basic_stringstream"*, align 8
  store %"class.std::__1::basic_stringstream"* %0, %"class.std::__1::basic_stringstream"** %2, align 8
  call void @llvm.dbg.declare(metadata %"class.std::__1::basic_stringstream"** %2, metadata !5511, metadata !3948), !dbg !5512
  %3 = load %"class.std::__1::basic_stringstream"*, %"class.std::__1::basic_stringstream"** %2, align 8
  call void @_ZNSt3__118basic_stringstreamIcNS_11char_traitsIcEENS_9allocatorIcEEED1Ev(%"class.std::__1::basic_stringstream"* %3) #10, !dbg !5513
  %4 = bitcast %"class.std::__1::basic_stringstream"* %3 to i8*, !dbg !5513
  call void @_ZdlPv(i8* %4) #11, !dbg !5513
  ret void, !dbg !5513
}

; Function Attrs: nounwind ssp uwtable
define linkonce_odr void @_ZThn16_NSt3__118basic_stringstreamIcNS_11char_traitsIcEENS_9allocatorIcEEED1Ev(%"class.std::__1::basic_stringstream"*) unnamed_addr #0 align 2 !dbg !5514 {
  %2 = alloca %"class.std::__1::basic_stringstream"*, align 8
  store %"class.std::__1::basic_stringstream"* %0, %"class.std::__1::basic_stringstream"** %2, align 8
  call void @llvm.dbg.declare(metadata %"class.std::__1::basic_stringstream"** %2, metadata !5516, metadata !3948), !dbg !5517
  %3 = load %"class.std::__1::basic_stringstream"*, %"class.std::__1::basic_stringstream"** %2, align 8, !dbg !5518
  %4 = bitcast %"class.std::__1::basic_stringstream"* %3 to i8*, !dbg !5518
  %5 = getelementptr inbounds i8, i8* %4, i64 -16, !dbg !5518
  %6 = bitcast i8* %5 to %"class.std::__1::basic_stringstream"*, !dbg !5518
  call void @_ZNSt3__118basic_stringstreamIcNS_11char_traitsIcEENS_9allocatorIcEEED1Ev(%"class.std::__1::basic_stringstream"* %6) #10, !dbg !5518
  ret void, !dbg !5518
}

; Function Attrs: nounwind ssp uwtable
define linkonce_odr void @_ZThn16_NSt3__118basic_stringstreamIcNS_11char_traitsIcEENS_9allocatorIcEEED0Ev(%"class.std::__1::basic_stringstream"*) unnamed_addr #0 align 2 !dbg !5519 {
  %2 = alloca %"class.std::__1::basic_stringstream"*, align 8
  store %"class.std::__1::basic_stringstream"* %0, %"class.std::__1::basic_stringstream"** %2, align 8
  call void @llvm.dbg.declare(metadata %"class.std::__1::basic_stringstream"** %2, metadata !5520, metadata !3948), !dbg !5521
  %3 = load %"class.std::__1::basic_stringstream"*, %"class.std::__1::basic_stringstream"** %2, align 8, !dbg !5522
  %4 = bitcast %"class.std::__1::basic_stringstream"* %3 to i8*, !dbg !5522
  %5 = getelementptr inbounds i8, i8* %4, i64 -16, !dbg !5522
  %6 = bitcast i8* %5 to %"class.std::__1::basic_stringstream"*, !dbg !5522
  call void @_ZNSt3__118basic_stringstreamIcNS_11char_traitsIcEENS_9allocatorIcEEED0Ev(%"class.std::__1::basic_stringstream"* %6) #10, !dbg !5522
  ret void, !dbg !5522
}

; Function Attrs: nounwind ssp uwtable
define linkonce_odr void @_ZTv0_n24_NSt3__118basic_stringstreamIcNS_11char_traitsIcEENS_9allocatorIcEEED1Ev(%"class.std::__1::basic_stringstream"*) unnamed_addr #0 align 2 !dbg !5523 {
  %2 = alloca %"class.std::__1::basic_stringstream"*, align 8
  store %"class.std::__1::basic_stringstream"* %0, %"class.std::__1::basic_stringstream"** %2, align 8
  call void @llvm.dbg.declare(metadata %"class.std::__1::basic_stringstream"** %2, metadata !5524, metadata !3948), !dbg !5525
  %3 = load %"class.std::__1::basic_stringstream"*, %"class.std::__1::basic_stringstream"** %2, align 8, !dbg !5526
  %4 = bitcast %"class.std::__1::basic_stringstream"* %3 to i8*, !dbg !5526
  %5 = bitcast i8* %4 to i8**, !dbg !5526
  %6 = load i8*, i8** %5, align 8, !dbg !5526
  %7 = getelementptr inbounds i8, i8* %6, i64 -24, !dbg !5526
  %8 = bitcast i8* %7 to i64*, !dbg !5526
  %9 = load i64, i64* %8, align 8, !dbg !5526
  %10 = getelementptr inbounds i8, i8* %4, i64 %9, !dbg !5526
  %11 = bitcast i8* %10 to %"class.std::__1::basic_stringstream"*, !dbg !5526
  call void @_ZNSt3__118basic_stringstreamIcNS_11char_traitsIcEENS_9allocatorIcEEED1Ev(%"class.std::__1::basic_stringstream"* %11) #10, !dbg !5526
  ret void, !dbg !5526
}

; Function Attrs: nounwind ssp uwtable
define linkonce_odr void @_ZTv0_n24_NSt3__118basic_stringstreamIcNS_11char_traitsIcEENS_9allocatorIcEEED0Ev(%"class.std::__1::basic_stringstream"*) unnamed_addr #0 align 2 !dbg !5527 {
  %2 = alloca %"class.std::__1::basic_stringstream"*, align 8
  store %"class.std::__1::basic_stringstream"* %0, %"class.std::__1::basic_stringstream"** %2, align 8
  call void @llvm.dbg.declare(metadata %"class.std::__1::basic_stringstream"** %2, metadata !5528, metadata !3948), !dbg !5529
  %3 = load %"class.std::__1::basic_stringstream"*, %"class.std::__1::basic_stringstream"** %2, align 8, !dbg !5530
  %4 = bitcast %"class.std::__1::basic_stringstream"* %3 to i8*, !dbg !5530
  %5 = bitcast i8* %4 to i8**, !dbg !5530
  %6 = load i8*, i8** %5, align 8, !dbg !5530
  %7 = getelementptr inbounds i8, i8* %6, i64 -24, !dbg !5530
  %8 = bitcast i8* %7 to i64*, !dbg !5530
  %9 = load i64, i64* %8, align 8, !dbg !5530
  %10 = getelementptr inbounds i8, i8* %4, i64 %9, !dbg !5530
  %11 = bitcast i8* %10 to %"class.std::__1::basic_stringstream"*, !dbg !5530
  call void @_ZNSt3__118basic_stringstreamIcNS_11char_traitsIcEENS_9allocatorIcEEED0Ev(%"class.std::__1::basic_stringstream"* %11) #10, !dbg !5530
  ret void, !dbg !5530
}

declare void @_ZNSt3__18ios_base4initEPv(%"class.std::__1::ios_base"*, i8*) #1

; Function Attrs: inlinehint nounwind ssp uwtable
define linkonce_odr i32 @_ZNSt3__111char_traitsIcE3eofEv() #3 align 2 !dbg !5531 {
  ret i32 -1, !dbg !5532
}

declare void @_ZNSt3__115basic_streambufIcNS_11char_traitsIcEEEC2Ev(%"class.std::__1::basic_streambuf"*) #1

; Function Attrs: nounwind ssp uwtable
define linkonce_odr void @_ZNSt3__115basic_stringbufIcNS_11char_traitsIcEENS_9allocatorIcEEE3strERKNS_12basic_stringIcS2_S4_EE(%"class.std::__1::basic_stringbuf"*, %"class.std::__1::basic_string"* dereferenceable(24)) #0 align 2 !dbg !5533 {
  %3 = alloca i8*, align 8
  call void @llvm.dbg.declare(metadata i8** %3, metadata !5101, metadata !3948), !dbg !5534
  %4 = alloca %"class.std::__1::__libcpp_compressed_pair_imp"*, align 8
  call void @llvm.dbg.declare(metadata %"class.std::__1::__libcpp_compressed_pair_imp"** %4, metadata !5111, metadata !3948), !dbg !5539
  %5 = alloca %"class.std::__1::__compressed_pair"*, align 8
  call void @llvm.dbg.declare(metadata %"class.std::__1::__compressed_pair"** %5, metadata !5122, metadata !3948), !dbg !5544
  %6 = alloca %"class.std::__1::basic_string"*, align 8
  call void @llvm.dbg.declare(metadata %"class.std::__1::basic_string"** %6, metadata !5125, metadata !3948), !dbg !5545
  %7 = alloca i8*, align 8
  call void @llvm.dbg.declare(metadata i8** %7, metadata !5127, metadata !3948), !dbg !5546
  %8 = alloca i8*, align 8
  call void @llvm.dbg.declare(metadata i8** %8, metadata !5153, metadata !3948), !dbg !5550
  %9 = alloca %"class.std::__1::__libcpp_compressed_pair_imp"*, align 8
  call void @llvm.dbg.declare(metadata %"class.std::__1::__libcpp_compressed_pair_imp"** %9, metadata !5111, metadata !3948), !dbg !5551
  %10 = alloca %"class.std::__1::__compressed_pair"*, align 8
  call void @llvm.dbg.declare(metadata %"class.std::__1::__compressed_pair"** %10, metadata !5122, metadata !3948), !dbg !5554
  %11 = alloca %"class.std::__1::basic_string"*, align 8
  call void @llvm.dbg.declare(metadata %"class.std::__1::basic_string"** %11, metadata !5159, metadata !3948), !dbg !5555
  %12 = alloca %"class.std::__1::__libcpp_compressed_pair_imp"*, align 8
  call void @llvm.dbg.declare(metadata %"class.std::__1::__libcpp_compressed_pair_imp"** %12, metadata !5111, metadata !3948), !dbg !5556
  %13 = alloca %"class.std::__1::__compressed_pair"*, align 8
  call void @llvm.dbg.declare(metadata %"class.std::__1::__compressed_pair"** %13, metadata !5122, metadata !3948), !dbg !5560
  %14 = alloca %"class.std::__1::basic_string"*, align 8
  call void @llvm.dbg.declare(metadata %"class.std::__1::basic_string"** %14, metadata !5167, metadata !3948), !dbg !5561
  %15 = alloca %"class.std::__1::basic_string"*, align 8
  call void @llvm.dbg.declare(metadata %"class.std::__1::basic_string"** %15, metadata !5169, metadata !3948), !dbg !5562
  %16 = alloca %"class.std::__1::basic_string"*, align 8
  call void @llvm.dbg.declare(metadata %"class.std::__1::basic_string"** %16, metadata !5171, metadata !3948), !dbg !5563
  %17 = alloca i8*, align 8
  call void @llvm.dbg.declare(metadata i8** %17, metadata !5101, metadata !3948), !dbg !5564
  %18 = alloca %"class.std::__1::__libcpp_compressed_pair_imp"*, align 8
  call void @llvm.dbg.declare(metadata %"class.std::__1::__libcpp_compressed_pair_imp"** %18, metadata !5111, metadata !3948), !dbg !5567
  %19 = alloca %"class.std::__1::__compressed_pair"*, align 8
  call void @llvm.dbg.declare(metadata %"class.std::__1::__compressed_pair"** %19, metadata !5122, metadata !3948), !dbg !5572
  %20 = alloca %"class.std::__1::basic_string"*, align 8
  call void @llvm.dbg.declare(metadata %"class.std::__1::basic_string"** %20, metadata !5125, metadata !3948), !dbg !5573
  %21 = alloca i8*, align 8
  call void @llvm.dbg.declare(metadata i8** %21, metadata !5127, metadata !3948), !dbg !5574
  %22 = alloca i8*, align 8
  call void @llvm.dbg.declare(metadata i8** %22, metadata !5153, metadata !3948), !dbg !5578
  %23 = alloca %"class.std::__1::__libcpp_compressed_pair_imp"*, align 8
  call void @llvm.dbg.declare(metadata %"class.std::__1::__libcpp_compressed_pair_imp"** %23, metadata !5111, metadata !3948), !dbg !5579
  %24 = alloca %"class.std::__1::__compressed_pair"*, align 8
  call void @llvm.dbg.declare(metadata %"class.std::__1::__compressed_pair"** %24, metadata !5122, metadata !3948), !dbg !5582
  %25 = alloca %"class.std::__1::basic_string"*, align 8
  call void @llvm.dbg.declare(metadata %"class.std::__1::basic_string"** %25, metadata !5159, metadata !3948), !dbg !5583
  %26 = alloca %"class.std::__1::__libcpp_compressed_pair_imp"*, align 8
  call void @llvm.dbg.declare(metadata %"class.std::__1::__libcpp_compressed_pair_imp"** %26, metadata !5111, metadata !3948), !dbg !5584
  %27 = alloca %"class.std::__1::__compressed_pair"*, align 8
  call void @llvm.dbg.declare(metadata %"class.std::__1::__compressed_pair"** %27, metadata !5122, metadata !3948), !dbg !5588
  %28 = alloca %"class.std::__1::basic_string"*, align 8
  call void @llvm.dbg.declare(metadata %"class.std::__1::basic_string"** %28, metadata !5167, metadata !3948), !dbg !5589
  %29 = alloca %"class.std::__1::basic_string"*, align 8
  call void @llvm.dbg.declare(metadata %"class.std::__1::basic_string"** %29, metadata !5169, metadata !3948), !dbg !5590
  %30 = alloca %"class.std::__1::basic_string"*, align 8
  call void @llvm.dbg.declare(metadata %"class.std::__1::basic_string"** %30, metadata !5171, metadata !3948), !dbg !5591
  %31 = alloca %"class.std::__1::basic_streambuf"*, align 8
  call void @llvm.dbg.declare(metadata %"class.std::__1::basic_streambuf"** %31, metadata !5592, metadata !3948), !dbg !5594
  %32 = alloca i8*, align 8
  call void @llvm.dbg.declare(metadata i8** %32, metadata !5596, metadata !3948), !dbg !5597
  %33 = alloca i8*, align 8
  call void @llvm.dbg.declare(metadata i8** %33, metadata !5598, metadata !3948), !dbg !5599
  %34 = alloca i8*, align 8
  call void @llvm.dbg.declare(metadata i8** %34, metadata !5600, metadata !3948), !dbg !5601
  %35 = alloca %"class.std::__1::__libcpp_compressed_pair_imp"*, align 8
  call void @llvm.dbg.declare(metadata %"class.std::__1::__libcpp_compressed_pair_imp"** %35, metadata !5111, metadata !3948), !dbg !5602
  %36 = alloca %"class.std::__1::__compressed_pair"*, align 8
  call void @llvm.dbg.declare(metadata %"class.std::__1::__compressed_pair"** %36, metadata !5122, metadata !3948), !dbg !5611
  %37 = alloca %"class.std::__1::basic_string"*, align 8
  call void @llvm.dbg.declare(metadata %"class.std::__1::basic_string"** %37, metadata !5612, metadata !3948), !dbg !5613
  %38 = alloca %"class.std::__1::__libcpp_compressed_pair_imp"*, align 8
  call void @llvm.dbg.declare(metadata %"class.std::__1::__libcpp_compressed_pair_imp"** %38, metadata !5111, metadata !3948), !dbg !5614
  %39 = alloca %"class.std::__1::__compressed_pair"*, align 8
  call void @llvm.dbg.declare(metadata %"class.std::__1::__compressed_pair"** %39, metadata !5122, metadata !3948), !dbg !5619
  %40 = alloca %"class.std::__1::basic_string"*, align 8
  call void @llvm.dbg.declare(metadata %"class.std::__1::basic_string"** %40, metadata !5620, metadata !3948), !dbg !5621
  %41 = alloca %"class.std::__1::__libcpp_compressed_pair_imp"*, align 8
  call void @llvm.dbg.declare(metadata %"class.std::__1::__libcpp_compressed_pair_imp"** %41, metadata !5111, metadata !3948), !dbg !5622
  %42 = alloca %"class.std::__1::__compressed_pair"*, align 8
  call void @llvm.dbg.declare(metadata %"class.std::__1::__compressed_pair"** %42, metadata !5122, metadata !3948), !dbg !5626
  %43 = alloca %"class.std::__1::basic_string"*, align 8
  call void @llvm.dbg.declare(metadata %"class.std::__1::basic_string"** %43, metadata !5167, metadata !3948), !dbg !5627
  %44 = alloca %"class.std::__1::basic_string"*, align 8
  call void @llvm.dbg.declare(metadata %"class.std::__1::basic_string"** %44, metadata !5628, metadata !3948), !dbg !5629
  %45 = alloca i8*, align 8
  call void @llvm.dbg.declare(metadata i8** %45, metadata !5101, metadata !3948), !dbg !5630
  %46 = alloca %"class.std::__1::__libcpp_compressed_pair_imp"*, align 8
  call void @llvm.dbg.declare(metadata %"class.std::__1::__libcpp_compressed_pair_imp"** %46, metadata !5111, metadata !3948), !dbg !5633
  %47 = alloca %"class.std::__1::__compressed_pair"*, align 8
  call void @llvm.dbg.declare(metadata %"class.std::__1::__compressed_pair"** %47, metadata !5122, metadata !3948), !dbg !5638
  %48 = alloca %"class.std::__1::basic_string"*, align 8
  call void @llvm.dbg.declare(metadata %"class.std::__1::basic_string"** %48, metadata !5125, metadata !3948), !dbg !5639
  %49 = alloca i8*, align 8
  call void @llvm.dbg.declare(metadata i8** %49, metadata !5127, metadata !3948), !dbg !5640
  %50 = alloca i8*, align 8
  call void @llvm.dbg.declare(metadata i8** %50, metadata !5153, metadata !3948), !dbg !5644
  %51 = alloca %"class.std::__1::__libcpp_compressed_pair_imp"*, align 8
  call void @llvm.dbg.declare(metadata %"class.std::__1::__libcpp_compressed_pair_imp"** %51, metadata !5111, metadata !3948), !dbg !5645
  %52 = alloca %"class.std::__1::__compressed_pair"*, align 8
  call void @llvm.dbg.declare(metadata %"class.std::__1::__compressed_pair"** %52, metadata !5122, metadata !3948), !dbg !5648
  %53 = alloca %"class.std::__1::basic_string"*, align 8
  call void @llvm.dbg.declare(metadata %"class.std::__1::basic_string"** %53, metadata !5159, metadata !3948), !dbg !5649
  %54 = alloca %"class.std::__1::__libcpp_compressed_pair_imp"*, align 8
  call void @llvm.dbg.declare(metadata %"class.std::__1::__libcpp_compressed_pair_imp"** %54, metadata !5111, metadata !3948), !dbg !5650
  %55 = alloca %"class.std::__1::__compressed_pair"*, align 8
  call void @llvm.dbg.declare(metadata %"class.std::__1::__compressed_pair"** %55, metadata !5122, metadata !3948), !dbg !5654
  %56 = alloca %"class.std::__1::basic_string"*, align 8
  call void @llvm.dbg.declare(metadata %"class.std::__1::basic_string"** %56, metadata !5167, metadata !3948), !dbg !5655
  %57 = alloca %"class.std::__1::basic_string"*, align 8
  call void @llvm.dbg.declare(metadata %"class.std::__1::basic_string"** %57, metadata !5169, metadata !3948), !dbg !5656
  %58 = alloca %"class.std::__1::basic_string"*, align 8
  call void @llvm.dbg.declare(metadata %"class.std::__1::basic_string"** %58, metadata !5171, metadata !3948), !dbg !5657
  %59 = alloca %"class.std::__1::__libcpp_compressed_pair_imp"*, align 8
  call void @llvm.dbg.declare(metadata %"class.std::__1::__libcpp_compressed_pair_imp"** %59, metadata !5111, metadata !3948), !dbg !5658
  %60 = alloca %"class.std::__1::__compressed_pair"*, align 8
  call void @llvm.dbg.declare(metadata %"class.std::__1::__compressed_pair"** %60, metadata !5122, metadata !3948), !dbg !5665
  %61 = alloca %"class.std::__1::basic_string"*, align 8
  call void @llvm.dbg.declare(metadata %"class.std::__1::basic_string"** %61, metadata !5666, metadata !3948), !dbg !5667
  %62 = alloca %"class.std::__1::__libcpp_compressed_pair_imp"*, align 8
  call void @llvm.dbg.declare(metadata %"class.std::__1::__libcpp_compressed_pair_imp"** %62, metadata !5111, metadata !3948), !dbg !5668
  %63 = alloca %"class.std::__1::__compressed_pair"*, align 8
  call void @llvm.dbg.declare(metadata %"class.std::__1::__compressed_pair"** %63, metadata !5122, metadata !3948), !dbg !5672
  %64 = alloca %"class.std::__1::basic_string"*, align 8
  call void @llvm.dbg.declare(metadata %"class.std::__1::basic_string"** %64, metadata !5167, metadata !3948), !dbg !5673
  %65 = alloca %"class.std::__1::basic_string"*, align 8
  call void @llvm.dbg.declare(metadata %"class.std::__1::basic_string"** %65, metadata !5674, metadata !3948), !dbg !5675
  %66 = alloca %"class.std::__1::__libcpp_compressed_pair_imp"*, align 8
  call void @llvm.dbg.declare(metadata %"class.std::__1::__libcpp_compressed_pair_imp"** %66, metadata !5111, metadata !3948), !dbg !5676
  %67 = alloca %"class.std::__1::__compressed_pair"*, align 8
  call void @llvm.dbg.declare(metadata %"class.std::__1::__compressed_pair"** %67, metadata !5122, metadata !3948), !dbg !5681
  %68 = alloca %"class.std::__1::basic_string"*, align 8
  call void @llvm.dbg.declare(metadata %"class.std::__1::basic_string"** %68, metadata !5612, metadata !3948), !dbg !5682
  %69 = alloca %"class.std::__1::__libcpp_compressed_pair_imp"*, align 8
  call void @llvm.dbg.declare(metadata %"class.std::__1::__libcpp_compressed_pair_imp"** %69, metadata !5111, metadata !3948), !dbg !5683
  %70 = alloca %"class.std::__1::__compressed_pair"*, align 8
  call void @llvm.dbg.declare(metadata %"class.std::__1::__compressed_pair"** %70, metadata !5122, metadata !3948), !dbg !5687
  %71 = alloca %"class.std::__1::basic_string"*, align 8
  call void @llvm.dbg.declare(metadata %"class.std::__1::basic_string"** %71, metadata !5620, metadata !3948), !dbg !5688
  %72 = alloca %"class.std::__1::__libcpp_compressed_pair_imp"*, align 8
  call void @llvm.dbg.declare(metadata %"class.std::__1::__libcpp_compressed_pair_imp"** %72, metadata !5111, metadata !3948), !dbg !5689
  %73 = alloca %"class.std::__1::__compressed_pair"*, align 8
  call void @llvm.dbg.declare(metadata %"class.std::__1::__compressed_pair"** %73, metadata !5122, metadata !3948), !dbg !5693
  %74 = alloca %"class.std::__1::basic_string"*, align 8
  call void @llvm.dbg.declare(metadata %"class.std::__1::basic_string"** %74, metadata !5167, metadata !3948), !dbg !5694
  %75 = alloca %"class.std::__1::basic_string"*, align 8
  call void @llvm.dbg.declare(metadata %"class.std::__1::basic_string"** %75, metadata !5628, metadata !3948), !dbg !5695
  %76 = alloca %"class.std::__1::basic_string"*, align 8
  call void @llvm.dbg.declare(metadata %"class.std::__1::basic_string"** %76, metadata !5696, metadata !3948), !dbg !5698
  %77 = alloca i64, align 8
  call void @llvm.dbg.declare(metadata i64* %77, metadata !5700, metadata !3948), !dbg !5701
  %78 = alloca i8*, align 8
  call void @llvm.dbg.declare(metadata i8** %78, metadata !5101, metadata !3948), !dbg !5702
  %79 = alloca %"class.std::__1::__libcpp_compressed_pair_imp"*, align 8
  call void @llvm.dbg.declare(metadata %"class.std::__1::__libcpp_compressed_pair_imp"** %79, metadata !5111, metadata !3948), !dbg !5705
  %80 = alloca %"class.std::__1::__compressed_pair"*, align 8
  call void @llvm.dbg.declare(metadata %"class.std::__1::__compressed_pair"** %80, metadata !5122, metadata !3948), !dbg !5710
  %81 = alloca %"class.std::__1::basic_string"*, align 8
  call void @llvm.dbg.declare(metadata %"class.std::__1::basic_string"** %81, metadata !5125, metadata !3948), !dbg !5711
  %82 = alloca i8*, align 8
  call void @llvm.dbg.declare(metadata i8** %82, metadata !5127, metadata !3948), !dbg !5712
  %83 = alloca i8*, align 8
  call void @llvm.dbg.declare(metadata i8** %83, metadata !5153, metadata !3948), !dbg !5716
  %84 = alloca %"class.std::__1::__libcpp_compressed_pair_imp"*, align 8
  call void @llvm.dbg.declare(metadata %"class.std::__1::__libcpp_compressed_pair_imp"** %84, metadata !5111, metadata !3948), !dbg !5717
  %85 = alloca %"class.std::__1::__compressed_pair"*, align 8
  call void @llvm.dbg.declare(metadata %"class.std::__1::__compressed_pair"** %85, metadata !5122, metadata !3948), !dbg !5720
  %86 = alloca %"class.std::__1::basic_string"*, align 8
  call void @llvm.dbg.declare(metadata %"class.std::__1::basic_string"** %86, metadata !5159, metadata !3948), !dbg !5721
  %87 = alloca %"class.std::__1::__libcpp_compressed_pair_imp"*, align 8
  call void @llvm.dbg.declare(metadata %"class.std::__1::__libcpp_compressed_pair_imp"** %87, metadata !5111, metadata !3948), !dbg !5722
  %88 = alloca %"class.std::__1::__compressed_pair"*, align 8
  call void @llvm.dbg.declare(metadata %"class.std::__1::__compressed_pair"** %88, metadata !5122, metadata !3948), !dbg !5726
  %89 = alloca %"class.std::__1::basic_string"*, align 8
  call void @llvm.dbg.declare(metadata %"class.std::__1::basic_string"** %89, metadata !5167, metadata !3948), !dbg !5727
  %90 = alloca %"class.std::__1::basic_string"*, align 8
  call void @llvm.dbg.declare(metadata %"class.std::__1::basic_string"** %90, metadata !5169, metadata !3948), !dbg !5728
  %91 = alloca %"class.std::__1::basic_string"*, align 8
  call void @llvm.dbg.declare(metadata %"class.std::__1::basic_string"** %91, metadata !5171, metadata !3948), !dbg !5729
  %92 = alloca i8*, align 8
  call void @llvm.dbg.declare(metadata i8** %92, metadata !5101, metadata !3948), !dbg !5730
  %93 = alloca %"class.std::__1::__libcpp_compressed_pair_imp"*, align 8
  call void @llvm.dbg.declare(metadata %"class.std::__1::__libcpp_compressed_pair_imp"** %93, metadata !5111, metadata !3948), !dbg !5733
  %94 = alloca %"class.std::__1::__compressed_pair"*, align 8
  call void @llvm.dbg.declare(metadata %"class.std::__1::__compressed_pair"** %94, metadata !5122, metadata !3948), !dbg !5738
  %95 = alloca %"class.std::__1::basic_string"*, align 8
  call void @llvm.dbg.declare(metadata %"class.std::__1::basic_string"** %95, metadata !5125, metadata !3948), !dbg !5739
  %96 = alloca i8*, align 8
  call void @llvm.dbg.declare(metadata i8** %96, metadata !5127, metadata !3948), !dbg !5740
  %97 = alloca i8*, align 8
  call void @llvm.dbg.declare(metadata i8** %97, metadata !5153, metadata !3948), !dbg !5744
  %98 = alloca %"class.std::__1::__libcpp_compressed_pair_imp"*, align 8
  call void @llvm.dbg.declare(metadata %"class.std::__1::__libcpp_compressed_pair_imp"** %98, metadata !5111, metadata !3948), !dbg !5745
  %99 = alloca %"class.std::__1::__compressed_pair"*, align 8
  call void @llvm.dbg.declare(metadata %"class.std::__1::__compressed_pair"** %99, metadata !5122, metadata !3948), !dbg !5748
  %100 = alloca %"class.std::__1::basic_string"*, align 8
  call void @llvm.dbg.declare(metadata %"class.std::__1::basic_string"** %100, metadata !5159, metadata !3948), !dbg !5749
  %101 = alloca %"class.std::__1::__libcpp_compressed_pair_imp"*, align 8
  call void @llvm.dbg.declare(metadata %"class.std::__1::__libcpp_compressed_pair_imp"** %101, metadata !5111, metadata !3948), !dbg !5750
  %102 = alloca %"class.std::__1::__compressed_pair"*, align 8
  call void @llvm.dbg.declare(metadata %"class.std::__1::__compressed_pair"** %102, metadata !5122, metadata !3948), !dbg !5754
  %103 = alloca %"class.std::__1::basic_string"*, align 8
  call void @llvm.dbg.declare(metadata %"class.std::__1::basic_string"** %103, metadata !5167, metadata !3948), !dbg !5755
  %104 = alloca %"class.std::__1::basic_string"*, align 8
  call void @llvm.dbg.declare(metadata %"class.std::__1::basic_string"** %104, metadata !5169, metadata !3948), !dbg !5756
  %105 = alloca %"class.std::__1::basic_string"*, align 8
  call void @llvm.dbg.declare(metadata %"class.std::__1::basic_string"** %105, metadata !5171, metadata !3948), !dbg !5757
  %106 = alloca %"class.std::__1::__libcpp_compressed_pair_imp"*, align 8
  call void @llvm.dbg.declare(metadata %"class.std::__1::__libcpp_compressed_pair_imp"** %106, metadata !5111, metadata !3948), !dbg !5758
  %107 = alloca %"class.std::__1::__compressed_pair"*, align 8
  call void @llvm.dbg.declare(metadata %"class.std::__1::__compressed_pair"** %107, metadata !5122, metadata !3948), !dbg !5763
  %108 = alloca %"class.std::__1::basic_string"*, align 8
  call void @llvm.dbg.declare(metadata %"class.std::__1::basic_string"** %108, metadata !5612, metadata !3948), !dbg !5764
  %109 = alloca %"class.std::__1::__libcpp_compressed_pair_imp"*, align 8
  call void @llvm.dbg.declare(metadata %"class.std::__1::__libcpp_compressed_pair_imp"** %109, metadata !5111, metadata !3948), !dbg !5765
  %110 = alloca %"class.std::__1::__compressed_pair"*, align 8
  call void @llvm.dbg.declare(metadata %"class.std::__1::__compressed_pair"** %110, metadata !5122, metadata !3948), !dbg !5769
  %111 = alloca %"class.std::__1::basic_string"*, align 8
  call void @llvm.dbg.declare(metadata %"class.std::__1::basic_string"** %111, metadata !5620, metadata !3948), !dbg !5770
  %112 = alloca %"class.std::__1::__libcpp_compressed_pair_imp"*, align 8
  call void @llvm.dbg.declare(metadata %"class.std::__1::__libcpp_compressed_pair_imp"** %112, metadata !5111, metadata !3948), !dbg !5771
  %113 = alloca %"class.std::__1::__compressed_pair"*, align 8
  call void @llvm.dbg.declare(metadata %"class.std::__1::__compressed_pair"** %113, metadata !5122, metadata !3948), !dbg !5775
  %114 = alloca %"class.std::__1::basic_string"*, align 8
  call void @llvm.dbg.declare(metadata %"class.std::__1::basic_string"** %114, metadata !5167, metadata !3948), !dbg !5776
  %115 = alloca %"class.std::__1::basic_string"*, align 8
  call void @llvm.dbg.declare(metadata %"class.std::__1::basic_string"** %115, metadata !5628, metadata !3948), !dbg !5777
  %116 = alloca %"class.std::__1::basic_streambuf"*, align 8
  call void @llvm.dbg.declare(metadata %"class.std::__1::basic_streambuf"** %116, metadata !5778, metadata !3948), !dbg !5780
  %117 = alloca i8*, align 8
  call void @llvm.dbg.declare(metadata i8** %117, metadata !5782, metadata !3948), !dbg !5783
  %118 = alloca i8*, align 8
  call void @llvm.dbg.declare(metadata i8** %118, metadata !5784, metadata !3948), !dbg !5785
  %119 = alloca %"class.std::__1::basic_streambuf"*, align 8
  call void @llvm.dbg.declare(metadata %"class.std::__1::basic_streambuf"** %119, metadata !5786, metadata !3948), !dbg !5788
  %120 = alloca i32, align 4
  call void @llvm.dbg.declare(metadata i32* %120, metadata !5791, metadata !3948), !dbg !5792
  %121 = alloca i8*, align 8
  call void @llvm.dbg.declare(metadata i8** %121, metadata !5101, metadata !3948), !dbg !5793
  %122 = alloca %"class.std::__1::__libcpp_compressed_pair_imp"*, align 8
  call void @llvm.dbg.declare(metadata %"class.std::__1::__libcpp_compressed_pair_imp"** %122, metadata !5111, metadata !3948), !dbg !5796
  %123 = alloca %"class.std::__1::__compressed_pair"*, align 8
  call void @llvm.dbg.declare(metadata %"class.std::__1::__compressed_pair"** %123, metadata !5122, metadata !3948), !dbg !5801
  %124 = alloca %"class.std::__1::basic_string"*, align 8
  call void @llvm.dbg.declare(metadata %"class.std::__1::basic_string"** %124, metadata !5125, metadata !3948), !dbg !5802
  %125 = alloca i8*, align 8
  call void @llvm.dbg.declare(metadata i8** %125, metadata !5127, metadata !3948), !dbg !5803
  %126 = alloca i8*, align 8
  call void @llvm.dbg.declare(metadata i8** %126, metadata !5153, metadata !3948), !dbg !5807
  %127 = alloca %"class.std::__1::__libcpp_compressed_pair_imp"*, align 8
  call void @llvm.dbg.declare(metadata %"class.std::__1::__libcpp_compressed_pair_imp"** %127, metadata !5111, metadata !3948), !dbg !5808
  %128 = alloca %"class.std::__1::__compressed_pair"*, align 8
  call void @llvm.dbg.declare(metadata %"class.std::__1::__compressed_pair"** %128, metadata !5122, metadata !3948), !dbg !5811
  %129 = alloca %"class.std::__1::basic_string"*, align 8
  call void @llvm.dbg.declare(metadata %"class.std::__1::basic_string"** %129, metadata !5159, metadata !3948), !dbg !5812
  %130 = alloca %"class.std::__1::__libcpp_compressed_pair_imp"*, align 8
  call void @llvm.dbg.declare(metadata %"class.std::__1::__libcpp_compressed_pair_imp"** %130, metadata !5111, metadata !3948), !dbg !5813
  %131 = alloca %"class.std::__1::__compressed_pair"*, align 8
  call void @llvm.dbg.declare(metadata %"class.std::__1::__compressed_pair"** %131, metadata !5122, metadata !3948), !dbg !5817
  %132 = alloca %"class.std::__1::basic_string"*, align 8
  call void @llvm.dbg.declare(metadata %"class.std::__1::basic_string"** %132, metadata !5167, metadata !3948), !dbg !5818
  %133 = alloca %"class.std::__1::basic_string"*, align 8
  call void @llvm.dbg.declare(metadata %"class.std::__1::basic_string"** %133, metadata !5169, metadata !3948), !dbg !5819
  %134 = alloca %"class.std::__1::basic_string"*, align 8
  call void @llvm.dbg.declare(metadata %"class.std::__1::basic_string"** %134, metadata !5171, metadata !3948), !dbg !5820
  %135 = alloca %"class.std::__1::basic_stringbuf"*, align 8
  %136 = alloca %"class.std::__1::basic_string"*, align 8
  %137 = alloca i64, align 8
  store %"class.std::__1::basic_stringbuf"* %0, %"class.std::__1::basic_stringbuf"** %135, align 8
  call void @llvm.dbg.declare(metadata %"class.std::__1::basic_stringbuf"** %135, metadata !5821, metadata !3948), !dbg !5822
  store %"class.std::__1::basic_string"* %1, %"class.std::__1::basic_string"** %136, align 8
  call void @llvm.dbg.declare(metadata %"class.std::__1::basic_string"** %136, metadata !5823, metadata !3948), !dbg !5824
  %138 = load %"class.std::__1::basic_stringbuf"*, %"class.std::__1::basic_stringbuf"** %135, align 8
  %139 = getelementptr inbounds %"class.std::__1::basic_stringbuf", %"class.std::__1::basic_stringbuf"* %138, i32 0, i32 1, !dbg !5825
  %140 = load %"class.std::__1::basic_string"*, %"class.std::__1::basic_string"** %136, align 8, !dbg !5826
  %141 = call dereferenceable(24) %"class.std::__1::basic_string"* @_ZNSt3__112basic_stringIcNS_11char_traitsIcEENS_9allocatorIcEEEaSERKS5_(%"class.std::__1::basic_string"* %139, %"class.std::__1::basic_string"* dereferenceable(24) %140), !dbg !5827
  %142 = getelementptr inbounds %"class.std::__1::basic_stringbuf", %"class.std::__1::basic_stringbuf"* %138, i32 0, i32 2, !dbg !5828
  store i8* null, i8** %142, align 8, !dbg !5829
  %143 = getelementptr inbounds %"class.std::__1::basic_stringbuf", %"class.std::__1::basic_stringbuf"* %138, i32 0, i32 3, !dbg !5830
  %144 = load i32, i32* %143, align 8, !dbg !5830
  %145 = and i32 %144, 8, !dbg !5831
  %146 = icmp ne i32 %145, 0, !dbg !5830
  br i1 %146, label %147, label %336, !dbg !5832

; <label>:147                                     ; preds = %2
  %148 = getelementptr inbounds %"class.std::__1::basic_stringbuf", %"class.std::__1::basic_stringbuf"* %138, i32 0, i32 1, !dbg !5833
  store %"class.std::__1::basic_string"* %148, %"class.std::__1::basic_string"** %134, align 8, !dbg !5833
  %149 = load %"class.std::__1::basic_string"*, %"class.std::__1::basic_string"** %134, align 8, !dbg !5833
  store %"class.std::__1::basic_string"* %149, %"class.std::__1::basic_string"** %133, align 8, !dbg !5834
  %150 = load %"class.std::__1::basic_string"*, %"class.std::__1::basic_string"** %133, align 8, !dbg !5834
  store %"class.std::__1::basic_string"* %150, %"class.std::__1::basic_string"** %132, align 8, !dbg !5835
  %151 = load %"class.std::__1::basic_string"*, %"class.std::__1::basic_string"** %132, align 8, !dbg !5835
  %152 = getelementptr inbounds %"class.std::__1::basic_string", %"class.std::__1::basic_string"* %151, i32 0, i32 0, !dbg !5836
  store %"class.std::__1::__compressed_pair"* %152, %"class.std::__1::__compressed_pair"** %131, align 8, !dbg !5836
  %153 = load %"class.std::__1::__compressed_pair"*, %"class.std::__1::__compressed_pair"** %131, align 8, !dbg !5836
  %154 = bitcast %"class.std::__1::__compressed_pair"* %153 to %"class.std::__1::__libcpp_compressed_pair_imp"*, !dbg !5837
  store %"class.std::__1::__libcpp_compressed_pair_imp"* %154, %"class.std::__1::__libcpp_compressed_pair_imp"** %130, align 8, !dbg !5837
  %155 = load %"class.std::__1::__libcpp_compressed_pair_imp"*, %"class.std::__1::__libcpp_compressed_pair_imp"** %130, align 8, !dbg !5837
  %156 = getelementptr inbounds %"class.std::__1::__libcpp_compressed_pair_imp", %"class.std::__1::__libcpp_compressed_pair_imp"* %155, i32 0, i32 0, !dbg !5838
  %157 = getelementptr inbounds %"struct.std::__1::basic_string<char, std::__1::char_traits<char>, std::__1::allocator<char> >::__rep", %"struct.std::__1::basic_string<char, std::__1::char_traits<char>, std::__1::allocator<char> >::__rep"* %156, i32 0, i32 0, !dbg !5839
  %158 = bitcast %union.anon* %157 to %"struct.std::__1::basic_string<char, std::__1::char_traits<char>, std::__1::allocator<char> >::__short"*, !dbg !5839
  %159 = getelementptr inbounds %"struct.std::__1::basic_string<char, std::__1::char_traits<char>, std::__1::allocator<char> >::__short", %"struct.std::__1::basic_string<char, std::__1::char_traits<char>, std::__1::allocator<char> >::__short"* %158, i32 0, i32 0, !dbg !5840
  %160 = bitcast %union.anon.0* %159 to i8*, !dbg !5840
  %161 = load i8, i8* %160, align 8, !dbg !5840
  %162 = zext i8 %161 to i32, !dbg !5836
  %163 = and i32 %162, 1, !dbg !5841
  %164 = icmp ne i32 %163, 0, !dbg !5836
  br i1 %164, label %165, label %176, !dbg !5835

; <label>:165                                     ; preds = %147
  store %"class.std::__1::basic_string"* %150, %"class.std::__1::basic_string"** %124, align 8, !dbg !5842
  %166 = load %"class.std::__1::basic_string"*, %"class.std::__1::basic_string"** %124, align 8, !dbg !5842
  %167 = getelementptr inbounds %"class.std::__1::basic_string", %"class.std::__1::basic_string"* %166, i32 0, i32 0, !dbg !5843
  store %"class.std::__1::__compressed_pair"* %167, %"class.std::__1::__compressed_pair"** %123, align 8, !dbg !5843
  %168 = load %"class.std::__1::__compressed_pair"*, %"class.std::__1::__compressed_pair"** %123, align 8, !dbg !5843
  %169 = bitcast %"class.std::__1::__compressed_pair"* %168 to %"class.std::__1::__libcpp_compressed_pair_imp"*, !dbg !5844
  store %"class.std::__1::__libcpp_compressed_pair_imp"* %169, %"class.std::__1::__libcpp_compressed_pair_imp"** %122, align 8, !dbg !5844
  %170 = load %"class.std::__1::__libcpp_compressed_pair_imp"*, %"class.std::__1::__libcpp_compressed_pair_imp"** %122, align 8, !dbg !5844
  %171 = getelementptr inbounds %"class.std::__1::__libcpp_compressed_pair_imp", %"class.std::__1::__libcpp_compressed_pair_imp"* %170, i32 0, i32 0, !dbg !5845
  %172 = getelementptr inbounds %"struct.std::__1::basic_string<char, std::__1::char_traits<char>, std::__1::allocator<char> >::__rep", %"struct.std::__1::basic_string<char, std::__1::char_traits<char>, std::__1::allocator<char> >::__rep"* %171, i32 0, i32 0, !dbg !5846
  %173 = bitcast %union.anon* %172 to %"struct.std::__1::basic_string<char, std::__1::char_traits<char>, std::__1::allocator<char> >::__long"*, !dbg !5846
  %174 = getelementptr inbounds %"struct.std::__1::basic_string<char, std::__1::char_traits<char>, std::__1::allocator<char> >::__long", %"struct.std::__1::basic_string<char, std::__1::char_traits<char>, std::__1::allocator<char> >::__long"* %173, i32 0, i32 2, !dbg !5847
  %175 = load i8*, i8** %174, align 8, !dbg !5847
  br label %189, !dbg !5835

; <label>:176                                     ; preds = %147
  store %"class.std::__1::basic_string"* %150, %"class.std::__1::basic_string"** %129, align 8, !dbg !5848
  %177 = load %"class.std::__1::basic_string"*, %"class.std::__1::basic_string"** %129, align 8, !dbg !5848
  %178 = getelementptr inbounds %"class.std::__1::basic_string", %"class.std::__1::basic_string"* %177, i32 0, i32 0, !dbg !5849
  store %"class.std::__1::__compressed_pair"* %178, %"class.std::__1::__compressed_pair"** %128, align 8, !dbg !5849
  %179 = load %"class.std::__1::__compressed_pair"*, %"class.std::__1::__compressed_pair"** %128, align 8, !dbg !5849
  %180 = bitcast %"class.std::__1::__compressed_pair"* %179 to %"class.std::__1::__libcpp_compressed_pair_imp"*, !dbg !5850
  store %"class.std::__1::__libcpp_compressed_pair_imp"* %180, %"class.std::__1::__libcpp_compressed_pair_imp"** %127, align 8, !dbg !5850
  %181 = load %"class.std::__1::__libcpp_compressed_pair_imp"*, %"class.std::__1::__libcpp_compressed_pair_imp"** %127, align 8, !dbg !5850
  %182 = getelementptr inbounds %"class.std::__1::__libcpp_compressed_pair_imp", %"class.std::__1::__libcpp_compressed_pair_imp"* %181, i32 0, i32 0, !dbg !5851
  %183 = getelementptr inbounds %"struct.std::__1::basic_string<char, std::__1::char_traits<char>, std::__1::allocator<char> >::__rep", %"struct.std::__1::basic_string<char, std::__1::char_traits<char>, std::__1::allocator<char> >::__rep"* %182, i32 0, i32 0, !dbg !5852
  %184 = bitcast %union.anon* %183 to %"struct.std::__1::basic_string<char, std::__1::char_traits<char>, std::__1::allocator<char> >::__short"*, !dbg !5852
  %185 = getelementptr inbounds %"struct.std::__1::basic_string<char, std::__1::char_traits<char>, std::__1::allocator<char> >::__short", %"struct.std::__1::basic_string<char, std::__1::char_traits<char>, std::__1::allocator<char> >::__short"* %184, i32 0, i32 1, !dbg !5853
  %186 = getelementptr inbounds [23 x i8], [23 x i8]* %185, i64 0, i64 0, !dbg !5849
  store i8* %186, i8** %126, align 8, !dbg !5854
  %187 = load i8*, i8** %126, align 8, !dbg !5855
  store i8* %187, i8** %125, align 8, !dbg !5856
  %188 = load i8*, i8** %125, align 8, !dbg !5857
  br label %189, !dbg !5835

; <label>:189                                     ; preds = %165, %176
  %190 = phi i8* [ %175, %165 ], [ %188, %176 ], !dbg !5835
  store i8* %190, i8** %121, align 8, !dbg !5858
  %191 = load i8*, i8** %121, align 8, !dbg !5859
  %192 = getelementptr inbounds %"class.std::__1::basic_stringbuf", %"class.std::__1::basic_stringbuf"* %138, i32 0, i32 1, !dbg !5860
  store %"class.std::__1::basic_string"* %192, %"class.std::__1::basic_string"** %75, align 8, !dbg !5860
  %193 = load %"class.std::__1::basic_string"*, %"class.std::__1::basic_string"** %75, align 8, !dbg !5860
  store %"class.std::__1::basic_string"* %193, %"class.std::__1::basic_string"** %74, align 8, !dbg !5861
  %194 = load %"class.std::__1::basic_string"*, %"class.std::__1::basic_string"** %74, align 8, !dbg !5861
  %195 = getelementptr inbounds %"class.std::__1::basic_string", %"class.std::__1::basic_string"* %194, i32 0, i32 0, !dbg !5862
  store %"class.std::__1::__compressed_pair"* %195, %"class.std::__1::__compressed_pair"** %73, align 8, !dbg !5862
  %196 = load %"class.std::__1::__compressed_pair"*, %"class.std::__1::__compressed_pair"** %73, align 8, !dbg !5862
  %197 = bitcast %"class.std::__1::__compressed_pair"* %196 to %"class.std::__1::__libcpp_compressed_pair_imp"*, !dbg !5863
  store %"class.std::__1::__libcpp_compressed_pair_imp"* %197, %"class.std::__1::__libcpp_compressed_pair_imp"** %72, align 8, !dbg !5863
  %198 = load %"class.std::__1::__libcpp_compressed_pair_imp"*, %"class.std::__1::__libcpp_compressed_pair_imp"** %72, align 8, !dbg !5863
  %199 = getelementptr inbounds %"class.std::__1::__libcpp_compressed_pair_imp", %"class.std::__1::__libcpp_compressed_pair_imp"* %198, i32 0, i32 0, !dbg !5864
  %200 = getelementptr inbounds %"struct.std::__1::basic_string<char, std::__1::char_traits<char>, std::__1::allocator<char> >::__rep", %"struct.std::__1::basic_string<char, std::__1::char_traits<char>, std::__1::allocator<char> >::__rep"* %199, i32 0, i32 0, !dbg !5865
  %201 = bitcast %union.anon* %200 to %"struct.std::__1::basic_string<char, std::__1::char_traits<char>, std::__1::allocator<char> >::__short"*, !dbg !5865
  %202 = getelementptr inbounds %"struct.std::__1::basic_string<char, std::__1::char_traits<char>, std::__1::allocator<char> >::__short", %"struct.std::__1::basic_string<char, std::__1::char_traits<char>, std::__1::allocator<char> >::__short"* %201, i32 0, i32 0, !dbg !5866
  %203 = bitcast %union.anon.0* %202 to i8*, !dbg !5866
  %204 = load i8, i8* %203, align 8, !dbg !5866
  %205 = zext i8 %204 to i32, !dbg !5862
  %206 = and i32 %205, 1, !dbg !5867
  %207 = icmp ne i32 %206, 0, !dbg !5862
  br i1 %207, label %208, label %219, !dbg !5861

; <label>:208                                     ; preds = %189
  store %"class.std::__1::basic_string"* %193, %"class.std::__1::basic_string"** %68, align 8, !dbg !5868
  %209 = load %"class.std::__1::basic_string"*, %"class.std::__1::basic_string"** %68, align 8, !dbg !5868
  %210 = getelementptr inbounds %"class.std::__1::basic_string", %"class.std::__1::basic_string"* %209, i32 0, i32 0, !dbg !5869
  store %"class.std::__1::__compressed_pair"* %210, %"class.std::__1::__compressed_pair"** %67, align 8, !dbg !5869
  %211 = load %"class.std::__1::__compressed_pair"*, %"class.std::__1::__compressed_pair"** %67, align 8, !dbg !5869
  %212 = bitcast %"class.std::__1::__compressed_pair"* %211 to %"class.std::__1::__libcpp_compressed_pair_imp"*, !dbg !5870
  store %"class.std::__1::__libcpp_compressed_pair_imp"* %212, %"class.std::__1::__libcpp_compressed_pair_imp"** %66, align 8, !dbg !5870
  %213 = load %"class.std::__1::__libcpp_compressed_pair_imp"*, %"class.std::__1::__libcpp_compressed_pair_imp"** %66, align 8, !dbg !5870
  %214 = getelementptr inbounds %"class.std::__1::__libcpp_compressed_pair_imp", %"class.std::__1::__libcpp_compressed_pair_imp"* %213, i32 0, i32 0, !dbg !5871
  %215 = getelementptr inbounds %"struct.std::__1::basic_string<char, std::__1::char_traits<char>, std::__1::allocator<char> >::__rep", %"struct.std::__1::basic_string<char, std::__1::char_traits<char>, std::__1::allocator<char> >::__rep"* %214, i32 0, i32 0, !dbg !5872
  %216 = bitcast %union.anon* %215 to %"struct.std::__1::basic_string<char, std::__1::char_traits<char>, std::__1::allocator<char> >::__long"*, !dbg !5872
  %217 = getelementptr inbounds %"struct.std::__1::basic_string<char, std::__1::char_traits<char>, std::__1::allocator<char> >::__long", %"struct.std::__1::basic_string<char, std::__1::char_traits<char>, std::__1::allocator<char> >::__long"* %216, i32 0, i32 1, !dbg !5873
  %218 = load i64, i64* %217, align 8, !dbg !5873
  br label %234, !dbg !5861

; <label>:219                                     ; preds = %189
  store %"class.std::__1::basic_string"* %193, %"class.std::__1::basic_string"** %71, align 8, !dbg !5874
  %220 = load %"class.std::__1::basic_string"*, %"class.std::__1::basic_string"** %71, align 8, !dbg !5874
  %221 = getelementptr inbounds %"class.std::__1::basic_string", %"class.std::__1::basic_string"* %220, i32 0, i32 0, !dbg !5875
  store %"class.std::__1::__compressed_pair"* %221, %"class.std::__1::__compressed_pair"** %70, align 8, !dbg !5875
  %222 = load %"class.std::__1::__compressed_pair"*, %"class.std::__1::__compressed_pair"** %70, align 8, !dbg !5875
  %223 = bitcast %"class.std::__1::__compressed_pair"* %222 to %"class.std::__1::__libcpp_compressed_pair_imp"*, !dbg !5876
  store %"class.std::__1::__libcpp_compressed_pair_imp"* %223, %"class.std::__1::__libcpp_compressed_pair_imp"** %69, align 8, !dbg !5876
  %224 = load %"class.std::__1::__libcpp_compressed_pair_imp"*, %"class.std::__1::__libcpp_compressed_pair_imp"** %69, align 8, !dbg !5876
  %225 = getelementptr inbounds %"class.std::__1::__libcpp_compressed_pair_imp", %"class.std::__1::__libcpp_compressed_pair_imp"* %224, i32 0, i32 0, !dbg !5877
  %226 = getelementptr inbounds %"struct.std::__1::basic_string<char, std::__1::char_traits<char>, std::__1::allocator<char> >::__rep", %"struct.std::__1::basic_string<char, std::__1::char_traits<char>, std::__1::allocator<char> >::__rep"* %225, i32 0, i32 0, !dbg !5878
  %227 = bitcast %union.anon* %226 to %"struct.std::__1::basic_string<char, std::__1::char_traits<char>, std::__1::allocator<char> >::__short"*, !dbg !5878
  %228 = getelementptr inbounds %"struct.std::__1::basic_string<char, std::__1::char_traits<char>, std::__1::allocator<char> >::__short", %"struct.std::__1::basic_string<char, std::__1::char_traits<char>, std::__1::allocator<char> >::__short"* %227, i32 0, i32 0, !dbg !5879
  %229 = bitcast %union.anon.0* %228 to i8*, !dbg !5879
  %230 = load i8, i8* %229, align 8, !dbg !5879
  %231 = zext i8 %230 to i32, !dbg !5875
  %232 = ashr i32 %231, 1, !dbg !5880
  %233 = sext i32 %232 to i64, !dbg !5875
  br label %234, !dbg !5861

; <label>:234                                     ; preds = %208, %219
  %235 = phi i64 [ %218, %208 ], [ %233, %219 ], !dbg !5861
  %236 = getelementptr inbounds i8, i8* %191, i64 %235, !dbg !5881
  %237 = getelementptr inbounds %"class.std::__1::basic_stringbuf", %"class.std::__1::basic_stringbuf"* %138, i32 0, i32 2, !dbg !5882
  store i8* %236, i8** %237, align 8, !dbg !5883
  %238 = bitcast %"class.std::__1::basic_stringbuf"* %138 to %"class.std::__1::basic_streambuf"*, !dbg !5884
  %239 = getelementptr inbounds %"class.std::__1::basic_stringbuf", %"class.std::__1::basic_stringbuf"* %138, i32 0, i32 1, !dbg !5885
  store %"class.std::__1::basic_string"* %239, %"class.std::__1::basic_string"** %16, align 8, !dbg !5885
  %240 = load %"class.std::__1::basic_string"*, %"class.std::__1::basic_string"** %16, align 8, !dbg !5885
  store %"class.std::__1::basic_string"* %240, %"class.std::__1::basic_string"** %15, align 8, !dbg !5886
  %241 = load %"class.std::__1::basic_string"*, %"class.std::__1::basic_string"** %15, align 8, !dbg !5886
  store %"class.std::__1::basic_string"* %241, %"class.std::__1::basic_string"** %14, align 8, !dbg !5887
  %242 = load %"class.std::__1::basic_string"*, %"class.std::__1::basic_string"** %14, align 8, !dbg !5887
  %243 = getelementptr inbounds %"class.std::__1::basic_string", %"class.std::__1::basic_string"* %242, i32 0, i32 0, !dbg !5888
  store %"class.std::__1::__compressed_pair"* %243, %"class.std::__1::__compressed_pair"** %13, align 8, !dbg !5888
  %244 = load %"class.std::__1::__compressed_pair"*, %"class.std::__1::__compressed_pair"** %13, align 8, !dbg !5888
  %245 = bitcast %"class.std::__1::__compressed_pair"* %244 to %"class.std::__1::__libcpp_compressed_pair_imp"*, !dbg !5889
  store %"class.std::__1::__libcpp_compressed_pair_imp"* %245, %"class.std::__1::__libcpp_compressed_pair_imp"** %12, align 8, !dbg !5889
  %246 = load %"class.std::__1::__libcpp_compressed_pair_imp"*, %"class.std::__1::__libcpp_compressed_pair_imp"** %12, align 8, !dbg !5889
  %247 = getelementptr inbounds %"class.std::__1::__libcpp_compressed_pair_imp", %"class.std::__1::__libcpp_compressed_pair_imp"* %246, i32 0, i32 0, !dbg !5890
  %248 = getelementptr inbounds %"struct.std::__1::basic_string<char, std::__1::char_traits<char>, std::__1::allocator<char> >::__rep", %"struct.std::__1::basic_string<char, std::__1::char_traits<char>, std::__1::allocator<char> >::__rep"* %247, i32 0, i32 0, !dbg !5891
  %249 = bitcast %union.anon* %248 to %"struct.std::__1::basic_string<char, std::__1::char_traits<char>, std::__1::allocator<char> >::__short"*, !dbg !5891
  %250 = getelementptr inbounds %"struct.std::__1::basic_string<char, std::__1::char_traits<char>, std::__1::allocator<char> >::__short", %"struct.std::__1::basic_string<char, std::__1::char_traits<char>, std::__1::allocator<char> >::__short"* %249, i32 0, i32 0, !dbg !5892
  %251 = bitcast %union.anon.0* %250 to i8*, !dbg !5892
  %252 = load i8, i8* %251, align 8, !dbg !5892
  %253 = zext i8 %252 to i32, !dbg !5888
  %254 = and i32 %253, 1, !dbg !5893
  %255 = icmp ne i32 %254, 0, !dbg !5888
  br i1 %255, label %256, label %267, !dbg !5887

; <label>:256                                     ; preds = %234
  store %"class.std::__1::basic_string"* %241, %"class.std::__1::basic_string"** %6, align 8, !dbg !5894
  %257 = load %"class.std::__1::basic_string"*, %"class.std::__1::basic_string"** %6, align 8, !dbg !5894
  %258 = getelementptr inbounds %"class.std::__1::basic_string", %"class.std::__1::basic_string"* %257, i32 0, i32 0, !dbg !5895
  store %"class.std::__1::__compressed_pair"* %258, %"class.std::__1::__compressed_pair"** %5, align 8, !dbg !5895
  %259 = load %"class.std::__1::__compressed_pair"*, %"class.std::__1::__compressed_pair"** %5, align 8, !dbg !5895
  %260 = bitcast %"class.std::__1::__compressed_pair"* %259 to %"class.std::__1::__libcpp_compressed_pair_imp"*, !dbg !5896
  store %"class.std::__1::__libcpp_compressed_pair_imp"* %260, %"class.std::__1::__libcpp_compressed_pair_imp"** %4, align 8, !dbg !5896
  %261 = load %"class.std::__1::__libcpp_compressed_pair_imp"*, %"class.std::__1::__libcpp_compressed_pair_imp"** %4, align 8, !dbg !5896
  %262 = getelementptr inbounds %"class.std::__1::__libcpp_compressed_pair_imp", %"class.std::__1::__libcpp_compressed_pair_imp"* %261, i32 0, i32 0, !dbg !5897
  %263 = getelementptr inbounds %"struct.std::__1::basic_string<char, std::__1::char_traits<char>, std::__1::allocator<char> >::__rep", %"struct.std::__1::basic_string<char, std::__1::char_traits<char>, std::__1::allocator<char> >::__rep"* %262, i32 0, i32 0, !dbg !5898
  %264 = bitcast %union.anon* %263 to %"struct.std::__1::basic_string<char, std::__1::char_traits<char>, std::__1::allocator<char> >::__long"*, !dbg !5898
  %265 = getelementptr inbounds %"struct.std::__1::basic_string<char, std::__1::char_traits<char>, std::__1::allocator<char> >::__long", %"struct.std::__1::basic_string<char, std::__1::char_traits<char>, std::__1::allocator<char> >::__long"* %264, i32 0, i32 2, !dbg !5899
  %266 = load i8*, i8** %265, align 8, !dbg !5899
  br label %280, !dbg !5887

; <label>:267                                     ; preds = %234
  store %"class.std::__1::basic_string"* %241, %"class.std::__1::basic_string"** %11, align 8, !dbg !5900
  %268 = load %"class.std::__1::basic_string"*, %"class.std::__1::basic_string"** %11, align 8, !dbg !5900
  %269 = getelementptr inbounds %"class.std::__1::basic_string", %"class.std::__1::basic_string"* %268, i32 0, i32 0, !dbg !5901
  store %"class.std::__1::__compressed_pair"* %269, %"class.std::__1::__compressed_pair"** %10, align 8, !dbg !5901
  %270 = load %"class.std::__1::__compressed_pair"*, %"class.std::__1::__compressed_pair"** %10, align 8, !dbg !5901
  %271 = bitcast %"class.std::__1::__compressed_pair"* %270 to %"class.std::__1::__libcpp_compressed_pair_imp"*, !dbg !5902
  store %"class.std::__1::__libcpp_compressed_pair_imp"* %271, %"class.std::__1::__libcpp_compressed_pair_imp"** %9, align 8, !dbg !5902
  %272 = load %"class.std::__1::__libcpp_compressed_pair_imp"*, %"class.std::__1::__libcpp_compressed_pair_imp"** %9, align 8, !dbg !5902
  %273 = getelementptr inbounds %"class.std::__1::__libcpp_compressed_pair_imp", %"class.std::__1::__libcpp_compressed_pair_imp"* %272, i32 0, i32 0, !dbg !5903
  %274 = getelementptr inbounds %"struct.std::__1::basic_string<char, std::__1::char_traits<char>, std::__1::allocator<char> >::__rep", %"struct.std::__1::basic_string<char, std::__1::char_traits<char>, std::__1::allocator<char> >::__rep"* %273, i32 0, i32 0, !dbg !5904
  %275 = bitcast %union.anon* %274 to %"struct.std::__1::basic_string<char, std::__1::char_traits<char>, std::__1::allocator<char> >::__short"*, !dbg !5904
  %276 = getelementptr inbounds %"struct.std::__1::basic_string<char, std::__1::char_traits<char>, std::__1::allocator<char> >::__short", %"struct.std::__1::basic_string<char, std::__1::char_traits<char>, std::__1::allocator<char> >::__short"* %275, i32 0, i32 1, !dbg !5905
  %277 = getelementptr inbounds [23 x i8], [23 x i8]* %276, i64 0, i64 0, !dbg !5901
  store i8* %277, i8** %8, align 8, !dbg !5906
  %278 = load i8*, i8** %8, align 8, !dbg !5907
  store i8* %278, i8** %7, align 8, !dbg !5908
  %279 = load i8*, i8** %7, align 8, !dbg !5909
  br label %280, !dbg !5887

; <label>:280                                     ; preds = %256, %267
  %281 = phi i8* [ %266, %256 ], [ %279, %267 ], !dbg !5887
  store i8* %281, i8** %3, align 8, !dbg !5910
  %282 = load i8*, i8** %3, align 8, !dbg !5911
  %283 = getelementptr inbounds %"class.std::__1::basic_stringbuf", %"class.std::__1::basic_stringbuf"* %138, i32 0, i32 1, !dbg !5912
  store %"class.std::__1::basic_string"* %283, %"class.std::__1::basic_string"** %30, align 8, !dbg !5912
  %284 = load %"class.std::__1::basic_string"*, %"class.std::__1::basic_string"** %30, align 8, !dbg !5912
  store %"class.std::__1::basic_string"* %284, %"class.std::__1::basic_string"** %29, align 8, !dbg !5913
  %285 = load %"class.std::__1::basic_string"*, %"class.std::__1::basic_string"** %29, align 8, !dbg !5913
  store %"class.std::__1::basic_string"* %285, %"class.std::__1::basic_string"** %28, align 8, !dbg !5914
  %286 = load %"class.std::__1::basic_string"*, %"class.std::__1::basic_string"** %28, align 8, !dbg !5914
  %287 = getelementptr inbounds %"class.std::__1::basic_string", %"class.std::__1::basic_string"* %286, i32 0, i32 0, !dbg !5915
  store %"class.std::__1::__compressed_pair"* %287, %"class.std::__1::__compressed_pair"** %27, align 8, !dbg !5915
  %288 = load %"class.std::__1::__compressed_pair"*, %"class.std::__1::__compressed_pair"** %27, align 8, !dbg !5915
  %289 = bitcast %"class.std::__1::__compressed_pair"* %288 to %"class.std::__1::__libcpp_compressed_pair_imp"*, !dbg !5916
  store %"class.std::__1::__libcpp_compressed_pair_imp"* %289, %"class.std::__1::__libcpp_compressed_pair_imp"** %26, align 8, !dbg !5916
  %290 = load %"class.std::__1::__libcpp_compressed_pair_imp"*, %"class.std::__1::__libcpp_compressed_pair_imp"** %26, align 8, !dbg !5916
  %291 = getelementptr inbounds %"class.std::__1::__libcpp_compressed_pair_imp", %"class.std::__1::__libcpp_compressed_pair_imp"* %290, i32 0, i32 0, !dbg !5917
  %292 = getelementptr inbounds %"struct.std::__1::basic_string<char, std::__1::char_traits<char>, std::__1::allocator<char> >::__rep", %"struct.std::__1::basic_string<char, std::__1::char_traits<char>, std::__1::allocator<char> >::__rep"* %291, i32 0, i32 0, !dbg !5918
  %293 = bitcast %union.anon* %292 to %"struct.std::__1::basic_string<char, std::__1::char_traits<char>, std::__1::allocator<char> >::__short"*, !dbg !5918
  %294 = getelementptr inbounds %"struct.std::__1::basic_string<char, std::__1::char_traits<char>, std::__1::allocator<char> >::__short", %"struct.std::__1::basic_string<char, std::__1::char_traits<char>, std::__1::allocator<char> >::__short"* %293, i32 0, i32 0, !dbg !5919
  %295 = bitcast %union.anon.0* %294 to i8*, !dbg !5919
  %296 = load i8, i8* %295, align 8, !dbg !5919
  %297 = zext i8 %296 to i32, !dbg !5915
  %298 = and i32 %297, 1, !dbg !5920
  %299 = icmp ne i32 %298, 0, !dbg !5915
  br i1 %299, label %300, label %311, !dbg !5914

; <label>:300                                     ; preds = %280
  store %"class.std::__1::basic_string"* %285, %"class.std::__1::basic_string"** %20, align 8, !dbg !5921
  %301 = load %"class.std::__1::basic_string"*, %"class.std::__1::basic_string"** %20, align 8, !dbg !5921
  %302 = getelementptr inbounds %"class.std::__1::basic_string", %"class.std::__1::basic_string"* %301, i32 0, i32 0, !dbg !5922
  store %"class.std::__1::__compressed_pair"* %302, %"class.std::__1::__compressed_pair"** %19, align 8, !dbg !5922
  %303 = load %"class.std::__1::__compressed_pair"*, %"class.std::__1::__compressed_pair"** %19, align 8, !dbg !5922
  %304 = bitcast %"class.std::__1::__compressed_pair"* %303 to %"class.std::__1::__libcpp_compressed_pair_imp"*, !dbg !5923
  store %"class.std::__1::__libcpp_compressed_pair_imp"* %304, %"class.std::__1::__libcpp_compressed_pair_imp"** %18, align 8, !dbg !5923
  %305 = load %"class.std::__1::__libcpp_compressed_pair_imp"*, %"class.std::__1::__libcpp_compressed_pair_imp"** %18, align 8, !dbg !5923
  %306 = getelementptr inbounds %"class.std::__1::__libcpp_compressed_pair_imp", %"class.std::__1::__libcpp_compressed_pair_imp"* %305, i32 0, i32 0, !dbg !5924
  %307 = getelementptr inbounds %"struct.std::__1::basic_string<char, std::__1::char_traits<char>, std::__1::allocator<char> >::__rep", %"struct.std::__1::basic_string<char, std::__1::char_traits<char>, std::__1::allocator<char> >::__rep"* %306, i32 0, i32 0, !dbg !5925
  %308 = bitcast %union.anon* %307 to %"struct.std::__1::basic_string<char, std::__1::char_traits<char>, std::__1::allocator<char> >::__long"*, !dbg !5925
  %309 = getelementptr inbounds %"struct.std::__1::basic_string<char, std::__1::char_traits<char>, std::__1::allocator<char> >::__long", %"struct.std::__1::basic_string<char, std::__1::char_traits<char>, std::__1::allocator<char> >::__long"* %308, i32 0, i32 2, !dbg !5926
  %310 = load i8*, i8** %309, align 8, !dbg !5926
  br label %324, !dbg !5914

; <label>:311                                     ; preds = %280
  store %"class.std::__1::basic_string"* %285, %"class.std::__1::basic_string"** %25, align 8, !dbg !5927
  %312 = load %"class.std::__1::basic_string"*, %"class.std::__1::basic_string"** %25, align 8, !dbg !5927
  %313 = getelementptr inbounds %"class.std::__1::basic_string", %"class.std::__1::basic_string"* %312, i32 0, i32 0, !dbg !5928
  store %"class.std::__1::__compressed_pair"* %313, %"class.std::__1::__compressed_pair"** %24, align 8, !dbg !5928
  %314 = load %"class.std::__1::__compressed_pair"*, %"class.std::__1::__compressed_pair"** %24, align 8, !dbg !5928
  %315 = bitcast %"class.std::__1::__compressed_pair"* %314 to %"class.std::__1::__libcpp_compressed_pair_imp"*, !dbg !5929
  store %"class.std::__1::__libcpp_compressed_pair_imp"* %315, %"class.std::__1::__libcpp_compressed_pair_imp"** %23, align 8, !dbg !5929
  %316 = load %"class.std::__1::__libcpp_compressed_pair_imp"*, %"class.std::__1::__libcpp_compressed_pair_imp"** %23, align 8, !dbg !5929
  %317 = getelementptr inbounds %"class.std::__1::__libcpp_compressed_pair_imp", %"class.std::__1::__libcpp_compressed_pair_imp"* %316, i32 0, i32 0, !dbg !5930
  %318 = getelementptr inbounds %"struct.std::__1::basic_string<char, std::__1::char_traits<char>, std::__1::allocator<char> >::__rep", %"struct.std::__1::basic_string<char, std::__1::char_traits<char>, std::__1::allocator<char> >::__rep"* %317, i32 0, i32 0, !dbg !5931
  %319 = bitcast %union.anon* %318 to %"struct.std::__1::basic_string<char, std::__1::char_traits<char>, std::__1::allocator<char> >::__short"*, !dbg !5931
  %320 = getelementptr inbounds %"struct.std::__1::basic_string<char, std::__1::char_traits<char>, std::__1::allocator<char> >::__short", %"struct.std::__1::basic_string<char, std::__1::char_traits<char>, std::__1::allocator<char> >::__short"* %319, i32 0, i32 1, !dbg !5932
  %321 = getelementptr inbounds [23 x i8], [23 x i8]* %320, i64 0, i64 0, !dbg !5928
  store i8* %321, i8** %22, align 8, !dbg !5933
  %322 = load i8*, i8** %22, align 8, !dbg !5934
  store i8* %322, i8** %21, align 8, !dbg !5935
  %323 = load i8*, i8** %21, align 8, !dbg !5936
  br label %324, !dbg !5914

; <label>:324                                     ; preds = %300, %311
  %325 = phi i8* [ %310, %300 ], [ %323, %311 ], !dbg !5914
  store i8* %325, i8** %17, align 8, !dbg !5937
  %326 = load i8*, i8** %17, align 8, !dbg !5938
  %327 = getelementptr inbounds %"class.std::__1::basic_stringbuf", %"class.std::__1::basic_stringbuf"* %138, i32 0, i32 2, !dbg !5939
  %328 = load i8*, i8** %327, align 8, !dbg !5939
  store %"class.std::__1::basic_streambuf"* %238, %"class.std::__1::basic_streambuf"** %31, align 8, !dbg !5884
  store i8* %282, i8** %32, align 8, !dbg !5884
  store i8* %326, i8** %33, align 8, !dbg !5884
  store i8* %328, i8** %34, align 8, !dbg !5884
  %329 = load %"class.std::__1::basic_streambuf"*, %"class.std::__1::basic_streambuf"** %31, align 8, !dbg !5884
  %330 = load i8*, i8** %32, align 8, !dbg !5940
  %331 = getelementptr inbounds %"class.std::__1::basic_streambuf", %"class.std::__1::basic_streambuf"* %329, i32 0, i32 2, !dbg !5941
  store i8* %330, i8** %331, align 8, !dbg !5942
  %332 = load i8*, i8** %33, align 8, !dbg !5943
  %333 = getelementptr inbounds %"class.std::__1::basic_streambuf", %"class.std::__1::basic_streambuf"* %329, i32 0, i32 3, !dbg !5944
  store i8* %332, i8** %333, align 8, !dbg !5945
  %334 = load i8*, i8** %34, align 8, !dbg !5946
  %335 = getelementptr inbounds %"class.std::__1::basic_streambuf", %"class.std::__1::basic_streambuf"* %329, i32 0, i32 4, !dbg !5947
  store i8* %334, i8** %335, align 8, !dbg !5948
  br label %336, !dbg !5949

; <label>:336                                     ; preds = %324, %2
  %337 = getelementptr inbounds %"class.std::__1::basic_stringbuf", %"class.std::__1::basic_stringbuf"* %138, i32 0, i32 3, !dbg !5950
  %338 = load i32, i32* %337, align 8, !dbg !5950
  %339 = and i32 %338, 16, !dbg !5951
  %340 = icmp ne i32 %339, 0, !dbg !5950
  br i1 %340, label %341, label %623, !dbg !5952

; <label>:341                                     ; preds = %336
  call void @llvm.dbg.declare(metadata i64* %137, metadata !5953, metadata !3948), !dbg !5954
  %342 = getelementptr inbounds %"class.std::__1::basic_stringbuf", %"class.std::__1::basic_stringbuf"* %138, i32 0, i32 1, !dbg !5955
  store %"class.std::__1::basic_string"* %342, %"class.std::__1::basic_string"** %44, align 8, !dbg !5955
  %343 = load %"class.std::__1::basic_string"*, %"class.std::__1::basic_string"** %44, align 8, !dbg !5955
  store %"class.std::__1::basic_string"* %343, %"class.std::__1::basic_string"** %43, align 8, !dbg !5956
  %344 = load %"class.std::__1::basic_string"*, %"class.std::__1::basic_string"** %43, align 8, !dbg !5956
  %345 = getelementptr inbounds %"class.std::__1::basic_string", %"class.std::__1::basic_string"* %344, i32 0, i32 0, !dbg !5957
  store %"class.std::__1::__compressed_pair"* %345, %"class.std::__1::__compressed_pair"** %42, align 8, !dbg !5957
  %346 = load %"class.std::__1::__compressed_pair"*, %"class.std::__1::__compressed_pair"** %42, align 8, !dbg !5957
  %347 = bitcast %"class.std::__1::__compressed_pair"* %346 to %"class.std::__1::__libcpp_compressed_pair_imp"*, !dbg !5958
  store %"class.std::__1::__libcpp_compressed_pair_imp"* %347, %"class.std::__1::__libcpp_compressed_pair_imp"** %41, align 8, !dbg !5958
  %348 = load %"class.std::__1::__libcpp_compressed_pair_imp"*, %"class.std::__1::__libcpp_compressed_pair_imp"** %41, align 8, !dbg !5958
  %349 = getelementptr inbounds %"class.std::__1::__libcpp_compressed_pair_imp", %"class.std::__1::__libcpp_compressed_pair_imp"* %348, i32 0, i32 0, !dbg !5959
  %350 = getelementptr inbounds %"struct.std::__1::basic_string<char, std::__1::char_traits<char>, std::__1::allocator<char> >::__rep", %"struct.std::__1::basic_string<char, std::__1::char_traits<char>, std::__1::allocator<char> >::__rep"* %349, i32 0, i32 0, !dbg !5960
  %351 = bitcast %union.anon* %350 to %"struct.std::__1::basic_string<char, std::__1::char_traits<char>, std::__1::allocator<char> >::__short"*, !dbg !5960
  %352 = getelementptr inbounds %"struct.std::__1::basic_string<char, std::__1::char_traits<char>, std::__1::allocator<char> >::__short", %"struct.std::__1::basic_string<char, std::__1::char_traits<char>, std::__1::allocator<char> >::__short"* %351, i32 0, i32 0, !dbg !5961
  %353 = bitcast %union.anon.0* %352 to i8*, !dbg !5961
  %354 = load i8, i8* %353, align 8, !dbg !5961
  %355 = zext i8 %354 to i32, !dbg !5957
  %356 = and i32 %355, 1, !dbg !5962
  %357 = icmp ne i32 %356, 0, !dbg !5957
  br i1 %357, label %358, label %369, !dbg !5956

; <label>:358                                     ; preds = %341
  store %"class.std::__1::basic_string"* %343, %"class.std::__1::basic_string"** %37, align 8, !dbg !5963
  %359 = load %"class.std::__1::basic_string"*, %"class.std::__1::basic_string"** %37, align 8, !dbg !5963
  %360 = getelementptr inbounds %"class.std::__1::basic_string", %"class.std::__1::basic_string"* %359, i32 0, i32 0, !dbg !5964
  store %"class.std::__1::__compressed_pair"* %360, %"class.std::__1::__compressed_pair"** %36, align 8, !dbg !5964
  %361 = load %"class.std::__1::__compressed_pair"*, %"class.std::__1::__compressed_pair"** %36, align 8, !dbg !5964
  %362 = bitcast %"class.std::__1::__compressed_pair"* %361 to %"class.std::__1::__libcpp_compressed_pair_imp"*, !dbg !5965
  store %"class.std::__1::__libcpp_compressed_pair_imp"* %362, %"class.std::__1::__libcpp_compressed_pair_imp"** %35, align 8, !dbg !5965
  %363 = load %"class.std::__1::__libcpp_compressed_pair_imp"*, %"class.std::__1::__libcpp_compressed_pair_imp"** %35, align 8, !dbg !5965
  %364 = getelementptr inbounds %"class.std::__1::__libcpp_compressed_pair_imp", %"class.std::__1::__libcpp_compressed_pair_imp"* %363, i32 0, i32 0, !dbg !5966
  %365 = getelementptr inbounds %"struct.std::__1::basic_string<char, std::__1::char_traits<char>, std::__1::allocator<char> >::__rep", %"struct.std::__1::basic_string<char, std::__1::char_traits<char>, std::__1::allocator<char> >::__rep"* %364, i32 0, i32 0, !dbg !5967
  %366 = bitcast %union.anon* %365 to %"struct.std::__1::basic_string<char, std::__1::char_traits<char>, std::__1::allocator<char> >::__long"*, !dbg !5967
  %367 = getelementptr inbounds %"struct.std::__1::basic_string<char, std::__1::char_traits<char>, std::__1::allocator<char> >::__long", %"struct.std::__1::basic_string<char, std::__1::char_traits<char>, std::__1::allocator<char> >::__long"* %366, i32 0, i32 1, !dbg !5968
  %368 = load i64, i64* %367, align 8, !dbg !5968
  br label %384, !dbg !5956

; <label>:369                                     ; preds = %341
  store %"class.std::__1::basic_string"* %343, %"class.std::__1::basic_string"** %40, align 8, !dbg !5969
  %370 = load %"class.std::__1::basic_string"*, %"class.std::__1::basic_string"** %40, align 8, !dbg !5969
  %371 = getelementptr inbounds %"class.std::__1::basic_string", %"class.std::__1::basic_string"* %370, i32 0, i32 0, !dbg !5970
  store %"class.std::__1::__compressed_pair"* %371, %"class.std::__1::__compressed_pair"** %39, align 8, !dbg !5970
  %372 = load %"class.std::__1::__compressed_pair"*, %"class.std::__1::__compressed_pair"** %39, align 8, !dbg !5970
  %373 = bitcast %"class.std::__1::__compressed_pair"* %372 to %"class.std::__1::__libcpp_compressed_pair_imp"*, !dbg !5971
  store %"class.std::__1::__libcpp_compressed_pair_imp"* %373, %"class.std::__1::__libcpp_compressed_pair_imp"** %38, align 8, !dbg !5971
  %374 = load %"class.std::__1::__libcpp_compressed_pair_imp"*, %"class.std::__1::__libcpp_compressed_pair_imp"** %38, align 8, !dbg !5971
  %375 = getelementptr inbounds %"class.std::__1::__libcpp_compressed_pair_imp", %"class.std::__1::__libcpp_compressed_pair_imp"* %374, i32 0, i32 0, !dbg !5972
  %376 = getelementptr inbounds %"struct.std::__1::basic_string<char, std::__1::char_traits<char>, std::__1::allocator<char> >::__rep", %"struct.std::__1::basic_string<char, std::__1::char_traits<char>, std::__1::allocator<char> >::__rep"* %375, i32 0, i32 0, !dbg !5973
  %377 = bitcast %union.anon* %376 to %"struct.std::__1::basic_string<char, std::__1::char_traits<char>, std::__1::allocator<char> >::__short"*, !dbg !5973
  %378 = getelementptr inbounds %"struct.std::__1::basic_string<char, std::__1::char_traits<char>, std::__1::allocator<char> >::__short", %"struct.std::__1::basic_string<char, std::__1::char_traits<char>, std::__1::allocator<char> >::__short"* %377, i32 0, i32 0, !dbg !5974
  %379 = bitcast %union.anon.0* %378 to i8*, !dbg !5974
  %380 = load i8, i8* %379, align 8, !dbg !5974
  %381 = zext i8 %380 to i32, !dbg !5970
  %382 = ashr i32 %381, 1, !dbg !5975
  %383 = sext i32 %382 to i64, !dbg !5970
  br label %384, !dbg !5956

; <label>:384                                     ; preds = %358, %369
  %385 = phi i64 [ %368, %358 ], [ %383, %369 ], !dbg !5956
  store i64 %385, i64* %137, align 8, !dbg !5954
  %386 = getelementptr inbounds %"class.std::__1::basic_stringbuf", %"class.std::__1::basic_stringbuf"* %138, i32 0, i32 1, !dbg !5976
  store %"class.std::__1::basic_string"* %386, %"class.std::__1::basic_string"** %58, align 8, !dbg !5976
  %387 = load %"class.std::__1::basic_string"*, %"class.std::__1::basic_string"** %58, align 8, !dbg !5976
  store %"class.std::__1::basic_string"* %387, %"class.std::__1::basic_string"** %57, align 8, !dbg !5977
  %388 = load %"class.std::__1::basic_string"*, %"class.std::__1::basic_string"** %57, align 8, !dbg !5977
  store %"class.std::__1::basic_string"* %388, %"class.std::__1::basic_string"** %56, align 8, !dbg !5978
  %389 = load %"class.std::__1::basic_string"*, %"class.std::__1::basic_string"** %56, align 8, !dbg !5978
  %390 = getelementptr inbounds %"class.std::__1::basic_string", %"class.std::__1::basic_string"* %389, i32 0, i32 0, !dbg !5979
  store %"class.std::__1::__compressed_pair"* %390, %"class.std::__1::__compressed_pair"** %55, align 8, !dbg !5979
  %391 = load %"class.std::__1::__compressed_pair"*, %"class.std::__1::__compressed_pair"** %55, align 8, !dbg !5979
  %392 = bitcast %"class.std::__1::__compressed_pair"* %391 to %"class.std::__1::__libcpp_compressed_pair_imp"*, !dbg !5980
  store %"class.std::__1::__libcpp_compressed_pair_imp"* %392, %"class.std::__1::__libcpp_compressed_pair_imp"** %54, align 8, !dbg !5980
  %393 = load %"class.std::__1::__libcpp_compressed_pair_imp"*, %"class.std::__1::__libcpp_compressed_pair_imp"** %54, align 8, !dbg !5980
  %394 = getelementptr inbounds %"class.std::__1::__libcpp_compressed_pair_imp", %"class.std::__1::__libcpp_compressed_pair_imp"* %393, i32 0, i32 0, !dbg !5981
  %395 = getelementptr inbounds %"struct.std::__1::basic_string<char, std::__1::char_traits<char>, std::__1::allocator<char> >::__rep", %"struct.std::__1::basic_string<char, std::__1::char_traits<char>, std::__1::allocator<char> >::__rep"* %394, i32 0, i32 0, !dbg !5982
  %396 = bitcast %union.anon* %395 to %"struct.std::__1::basic_string<char, std::__1::char_traits<char>, std::__1::allocator<char> >::__short"*, !dbg !5982
  %397 = getelementptr inbounds %"struct.std::__1::basic_string<char, std::__1::char_traits<char>, std::__1::allocator<char> >::__short", %"struct.std::__1::basic_string<char, std::__1::char_traits<char>, std::__1::allocator<char> >::__short"* %396, i32 0, i32 0, !dbg !5983
  %398 = bitcast %union.anon.0* %397 to i8*, !dbg !5983
  %399 = load i8, i8* %398, align 8, !dbg !5983
  %400 = zext i8 %399 to i32, !dbg !5979
  %401 = and i32 %400, 1, !dbg !5984
  %402 = icmp ne i32 %401, 0, !dbg !5979
  br i1 %402, label %403, label %414, !dbg !5978

; <label>:403                                     ; preds = %384
  store %"class.std::__1::basic_string"* %388, %"class.std::__1::basic_string"** %48, align 8, !dbg !5985
  %404 = load %"class.std::__1::basic_string"*, %"class.std::__1::basic_string"** %48, align 8, !dbg !5985
  %405 = getelementptr inbounds %"class.std::__1::basic_string", %"class.std::__1::basic_string"* %404, i32 0, i32 0, !dbg !5986
  store %"class.std::__1::__compressed_pair"* %405, %"class.std::__1::__compressed_pair"** %47, align 8, !dbg !5986
  %406 = load %"class.std::__1::__compressed_pair"*, %"class.std::__1::__compressed_pair"** %47, align 8, !dbg !5986
  %407 = bitcast %"class.std::__1::__compressed_pair"* %406 to %"class.std::__1::__libcpp_compressed_pair_imp"*, !dbg !5987
  store %"class.std::__1::__libcpp_compressed_pair_imp"* %407, %"class.std::__1::__libcpp_compressed_pair_imp"** %46, align 8, !dbg !5987
  %408 = load %"class.std::__1::__libcpp_compressed_pair_imp"*, %"class.std::__1::__libcpp_compressed_pair_imp"** %46, align 8, !dbg !5987
  %409 = getelementptr inbounds %"class.std::__1::__libcpp_compressed_pair_imp", %"class.std::__1::__libcpp_compressed_pair_imp"* %408, i32 0, i32 0, !dbg !5988
  %410 = getelementptr inbounds %"struct.std::__1::basic_string<char, std::__1::char_traits<char>, std::__1::allocator<char> >::__rep", %"struct.std::__1::basic_string<char, std::__1::char_traits<char>, std::__1::allocator<char> >::__rep"* %409, i32 0, i32 0, !dbg !5989
  %411 = bitcast %union.anon* %410 to %"struct.std::__1::basic_string<char, std::__1::char_traits<char>, std::__1::allocator<char> >::__long"*, !dbg !5989
  %412 = getelementptr inbounds %"struct.std::__1::basic_string<char, std::__1::char_traits<char>, std::__1::allocator<char> >::__long", %"struct.std::__1::basic_string<char, std::__1::char_traits<char>, std::__1::allocator<char> >::__long"* %411, i32 0, i32 2, !dbg !5990
  %413 = load i8*, i8** %412, align 8, !dbg !5990
  br label %427, !dbg !5978

; <label>:414                                     ; preds = %384
  store %"class.std::__1::basic_string"* %388, %"class.std::__1::basic_string"** %53, align 8, !dbg !5991
  %415 = load %"class.std::__1::basic_string"*, %"class.std::__1::basic_string"** %53, align 8, !dbg !5991
  %416 = getelementptr inbounds %"class.std::__1::basic_string", %"class.std::__1::basic_string"* %415, i32 0, i32 0, !dbg !5992
  store %"class.std::__1::__compressed_pair"* %416, %"class.std::__1::__compressed_pair"** %52, align 8, !dbg !5992
  %417 = load %"class.std::__1::__compressed_pair"*, %"class.std::__1::__compressed_pair"** %52, align 8, !dbg !5992
  %418 = bitcast %"class.std::__1::__compressed_pair"* %417 to %"class.std::__1::__libcpp_compressed_pair_imp"*, !dbg !5993
  store %"class.std::__1::__libcpp_compressed_pair_imp"* %418, %"class.std::__1::__libcpp_compressed_pair_imp"** %51, align 8, !dbg !5993
  %419 = load %"class.std::__1::__libcpp_compressed_pair_imp"*, %"class.std::__1::__libcpp_compressed_pair_imp"** %51, align 8, !dbg !5993
  %420 = getelementptr inbounds %"class.std::__1::__libcpp_compressed_pair_imp", %"class.std::__1::__libcpp_compressed_pair_imp"* %419, i32 0, i32 0, !dbg !5994
  %421 = getelementptr inbounds %"struct.std::__1::basic_string<char, std::__1::char_traits<char>, std::__1::allocator<char> >::__rep", %"struct.std::__1::basic_string<char, std::__1::char_traits<char>, std::__1::allocator<char> >::__rep"* %420, i32 0, i32 0, !dbg !5995
  %422 = bitcast %union.anon* %421 to %"struct.std::__1::basic_string<char, std::__1::char_traits<char>, std::__1::allocator<char> >::__short"*, !dbg !5995
  %423 = getelementptr inbounds %"struct.std::__1::basic_string<char, std::__1::char_traits<char>, std::__1::allocator<char> >::__short", %"struct.std::__1::basic_string<char, std::__1::char_traits<char>, std::__1::allocator<char> >::__short"* %422, i32 0, i32 1, !dbg !5996
  %424 = getelementptr inbounds [23 x i8], [23 x i8]* %423, i64 0, i64 0, !dbg !5992
  store i8* %424, i8** %50, align 8, !dbg !5997
  %425 = load i8*, i8** %50, align 8, !dbg !5998
  store i8* %425, i8** %49, align 8, !dbg !5999
  %426 = load i8*, i8** %49, align 8, !dbg !6000
  br label %427, !dbg !5978

; <label>:427                                     ; preds = %403, %414
  %428 = phi i8* [ %413, %403 ], [ %426, %414 ], !dbg !5978
  store i8* %428, i8** %45, align 8, !dbg !6001
  %429 = load i8*, i8** %45, align 8, !dbg !6002
  %430 = load i64, i64* %137, align 8, !dbg !6003
  %431 = getelementptr inbounds i8, i8* %429, i64 %430, !dbg !6004
  %432 = getelementptr inbounds %"class.std::__1::basic_stringbuf", %"class.std::__1::basic_stringbuf"* %138, i32 0, i32 2, !dbg !6005
  store i8* %431, i8** %432, align 8, !dbg !6006
  %433 = getelementptr inbounds %"class.std::__1::basic_stringbuf", %"class.std::__1::basic_stringbuf"* %138, i32 0, i32 1, !dbg !6007
  %434 = getelementptr inbounds %"class.std::__1::basic_stringbuf", %"class.std::__1::basic_stringbuf"* %138, i32 0, i32 1, !dbg !6008
  store %"class.std::__1::basic_string"* %434, %"class.std::__1::basic_string"** %65, align 8, !dbg !6008
  %435 = load %"class.std::__1::basic_string"*, %"class.std::__1::basic_string"** %65, align 8, !dbg !6008
  store %"class.std::__1::basic_string"* %435, %"class.std::__1::basic_string"** %64, align 8, !dbg !6009
  %436 = load %"class.std::__1::basic_string"*, %"class.std::__1::basic_string"** %64, align 8, !dbg !6009
  %437 = getelementptr inbounds %"class.std::__1::basic_string", %"class.std::__1::basic_string"* %436, i32 0, i32 0, !dbg !6010
  store %"class.std::__1::__compressed_pair"* %437, %"class.std::__1::__compressed_pair"** %63, align 8, !dbg !6010
  %438 = load %"class.std::__1::__compressed_pair"*, %"class.std::__1::__compressed_pair"** %63, align 8, !dbg !6010
  %439 = bitcast %"class.std::__1::__compressed_pair"* %438 to %"class.std::__1::__libcpp_compressed_pair_imp"*, !dbg !6011
  store %"class.std::__1::__libcpp_compressed_pair_imp"* %439, %"class.std::__1::__libcpp_compressed_pair_imp"** %62, align 8, !dbg !6011
  %440 = load %"class.std::__1::__libcpp_compressed_pair_imp"*, %"class.std::__1::__libcpp_compressed_pair_imp"** %62, align 8, !dbg !6011
  %441 = getelementptr inbounds %"class.std::__1::__libcpp_compressed_pair_imp", %"class.std::__1::__libcpp_compressed_pair_imp"* %440, i32 0, i32 0, !dbg !6012
  %442 = getelementptr inbounds %"struct.std::__1::basic_string<char, std::__1::char_traits<char>, std::__1::allocator<char> >::__rep", %"struct.std::__1::basic_string<char, std::__1::char_traits<char>, std::__1::allocator<char> >::__rep"* %441, i32 0, i32 0, !dbg !6013
  %443 = bitcast %union.anon* %442 to %"struct.std::__1::basic_string<char, std::__1::char_traits<char>, std::__1::allocator<char> >::__short"*, !dbg !6013
  %444 = getelementptr inbounds %"struct.std::__1::basic_string<char, std::__1::char_traits<char>, std::__1::allocator<char> >::__short", %"struct.std::__1::basic_string<char, std::__1::char_traits<char>, std::__1::allocator<char> >::__short"* %443, i32 0, i32 0, !dbg !6014
  %445 = bitcast %union.anon.0* %444 to i8*, !dbg !6014
  %446 = load i8, i8* %445, align 8, !dbg !6014
  %447 = zext i8 %446 to i32, !dbg !6010
  %448 = and i32 %447, 1, !dbg !6015
  %449 = icmp ne i32 %448, 0, !dbg !6010
  br i1 %449, label %450, label %462, !dbg !6009

; <label>:450                                     ; preds = %427
  store %"class.std::__1::basic_string"* %435, %"class.std::__1::basic_string"** %61, align 8, !dbg !6016
  %451 = load %"class.std::__1::basic_string"*, %"class.std::__1::basic_string"** %61, align 8, !dbg !6016
  %452 = getelementptr inbounds %"class.std::__1::basic_string", %"class.std::__1::basic_string"* %451, i32 0, i32 0, !dbg !6017
  store %"class.std::__1::__compressed_pair"* %452, %"class.std::__1::__compressed_pair"** %60, align 8, !dbg !6017
  %453 = load %"class.std::__1::__compressed_pair"*, %"class.std::__1::__compressed_pair"** %60, align 8, !dbg !6017
  %454 = bitcast %"class.std::__1::__compressed_pair"* %453 to %"class.std::__1::__libcpp_compressed_pair_imp"*, !dbg !6018
  store %"class.std::__1::__libcpp_compressed_pair_imp"* %454, %"class.std::__1::__libcpp_compressed_pair_imp"** %59, align 8, !dbg !6018
  %455 = load %"class.std::__1::__libcpp_compressed_pair_imp"*, %"class.std::__1::__libcpp_compressed_pair_imp"** %59, align 8, !dbg !6018
  %456 = getelementptr inbounds %"class.std::__1::__libcpp_compressed_pair_imp", %"class.std::__1::__libcpp_compressed_pair_imp"* %455, i32 0, i32 0, !dbg !6019
  %457 = getelementptr inbounds %"struct.std::__1::basic_string<char, std::__1::char_traits<char>, std::__1::allocator<char> >::__rep", %"struct.std::__1::basic_string<char, std::__1::char_traits<char>, std::__1::allocator<char> >::__rep"* %456, i32 0, i32 0, !dbg !6020
  %458 = bitcast %union.anon* %457 to %"struct.std::__1::basic_string<char, std::__1::char_traits<char>, std::__1::allocator<char> >::__long"*, !dbg !6020
  %459 = getelementptr inbounds %"struct.std::__1::basic_string<char, std::__1::char_traits<char>, std::__1::allocator<char> >::__long", %"struct.std::__1::basic_string<char, std::__1::char_traits<char>, std::__1::allocator<char> >::__long"* %458, i32 0, i32 0, !dbg !6021
  %460 = load i64, i64* %459, align 8, !dbg !6021
  %461 = and i64 %460, -2, !dbg !6022
  br label %463, !dbg !6009

; <label>:462                                     ; preds = %427
  br label %463, !dbg !6009

; <label>:463                                     ; preds = %450, %462
  %464 = phi i64 [ %461, %450 ], [ 23, %462 ], !dbg !6009
  %465 = sub i64 %464, 1, !dbg !6023
  store %"class.std::__1::basic_string"* %433, %"class.std::__1::basic_string"** %76, align 8, !dbg !6007
  store i64 %465, i64* %77, align 8, !dbg !6007
  %466 = load %"class.std::__1::basic_string"*, %"class.std::__1::basic_string"** %76, align 8, !dbg !6007
  %467 = load i64, i64* %77, align 8, !dbg !6024
  call void @_ZNSt3__112basic_stringIcNS_11char_traitsIcEENS_9allocatorIcEEE6resizeEmc(%"class.std::__1::basic_string"* %466, i64 %467, i8 signext 0) #10, !dbg !6025
  %468 = bitcast %"class.std::__1::basic_stringbuf"* %138 to %"class.std::__1::basic_streambuf"*, !dbg !6026
  %469 = getelementptr inbounds %"class.std::__1::basic_stringbuf", %"class.std::__1::basic_stringbuf"* %138, i32 0, i32 1, !dbg !6027
  store %"class.std::__1::basic_string"* %469, %"class.std::__1::basic_string"** %91, align 8, !dbg !6027
  %470 = load %"class.std::__1::basic_string"*, %"class.std::__1::basic_string"** %91, align 8, !dbg !6027
  store %"class.std::__1::basic_string"* %470, %"class.std::__1::basic_string"** %90, align 8, !dbg !6028
  %471 = load %"class.std::__1::basic_string"*, %"class.std::__1::basic_string"** %90, align 8, !dbg !6028
  store %"class.std::__1::basic_string"* %471, %"class.std::__1::basic_string"** %89, align 8, !dbg !6029
  %472 = load %"class.std::__1::basic_string"*, %"class.std::__1::basic_string"** %89, align 8, !dbg !6029
  %473 = getelementptr inbounds %"class.std::__1::basic_string", %"class.std::__1::basic_string"* %472, i32 0, i32 0, !dbg !6030
  store %"class.std::__1::__compressed_pair"* %473, %"class.std::__1::__compressed_pair"** %88, align 8, !dbg !6030
  %474 = load %"class.std::__1::__compressed_pair"*, %"class.std::__1::__compressed_pair"** %88, align 8, !dbg !6030
  %475 = bitcast %"class.std::__1::__compressed_pair"* %474 to %"class.std::__1::__libcpp_compressed_pair_imp"*, !dbg !6031
  store %"class.std::__1::__libcpp_compressed_pair_imp"* %475, %"class.std::__1::__libcpp_compressed_pair_imp"** %87, align 8, !dbg !6031
  %476 = load %"class.std::__1::__libcpp_compressed_pair_imp"*, %"class.std::__1::__libcpp_compressed_pair_imp"** %87, align 8, !dbg !6031
  %477 = getelementptr inbounds %"class.std::__1::__libcpp_compressed_pair_imp", %"class.std::__1::__libcpp_compressed_pair_imp"* %476, i32 0, i32 0, !dbg !6032
  %478 = getelementptr inbounds %"struct.std::__1::basic_string<char, std::__1::char_traits<char>, std::__1::allocator<char> >::__rep", %"struct.std::__1::basic_string<char, std::__1::char_traits<char>, std::__1::allocator<char> >::__rep"* %477, i32 0, i32 0, !dbg !6033
  %479 = bitcast %union.anon* %478 to %"struct.std::__1::basic_string<char, std::__1::char_traits<char>, std::__1::allocator<char> >::__short"*, !dbg !6033
  %480 = getelementptr inbounds %"struct.std::__1::basic_string<char, std::__1::char_traits<char>, std::__1::allocator<char> >::__short", %"struct.std::__1::basic_string<char, std::__1::char_traits<char>, std::__1::allocator<char> >::__short"* %479, i32 0, i32 0, !dbg !6034
  %481 = bitcast %union.anon.0* %480 to i8*, !dbg !6034
  %482 = load i8, i8* %481, align 8, !dbg !6034
  %483 = zext i8 %482 to i32, !dbg !6030
  %484 = and i32 %483, 1, !dbg !6035
  %485 = icmp ne i32 %484, 0, !dbg !6030
  br i1 %485, label %486, label %497, !dbg !6029

; <label>:486                                     ; preds = %463
  store %"class.std::__1::basic_string"* %471, %"class.std::__1::basic_string"** %81, align 8, !dbg !6036
  %487 = load %"class.std::__1::basic_string"*, %"class.std::__1::basic_string"** %81, align 8, !dbg !6036
  %488 = getelementptr inbounds %"class.std::__1::basic_string", %"class.std::__1::basic_string"* %487, i32 0, i32 0, !dbg !6037
  store %"class.std::__1::__compressed_pair"* %488, %"class.std::__1::__compressed_pair"** %80, align 8, !dbg !6037
  %489 = load %"class.std::__1::__compressed_pair"*, %"class.std::__1::__compressed_pair"** %80, align 8, !dbg !6037
  %490 = bitcast %"class.std::__1::__compressed_pair"* %489 to %"class.std::__1::__libcpp_compressed_pair_imp"*, !dbg !6038
  store %"class.std::__1::__libcpp_compressed_pair_imp"* %490, %"class.std::__1::__libcpp_compressed_pair_imp"** %79, align 8, !dbg !6038
  %491 = load %"class.std::__1::__libcpp_compressed_pair_imp"*, %"class.std::__1::__libcpp_compressed_pair_imp"** %79, align 8, !dbg !6038
  %492 = getelementptr inbounds %"class.std::__1::__libcpp_compressed_pair_imp", %"class.std::__1::__libcpp_compressed_pair_imp"* %491, i32 0, i32 0, !dbg !6039
  %493 = getelementptr inbounds %"struct.std::__1::basic_string<char, std::__1::char_traits<char>, std::__1::allocator<char> >::__rep", %"struct.std::__1::basic_string<char, std::__1::char_traits<char>, std::__1::allocator<char> >::__rep"* %492, i32 0, i32 0, !dbg !6040
  %494 = bitcast %union.anon* %493 to %"struct.std::__1::basic_string<char, std::__1::char_traits<char>, std::__1::allocator<char> >::__long"*, !dbg !6040
  %495 = getelementptr inbounds %"struct.std::__1::basic_string<char, std::__1::char_traits<char>, std::__1::allocator<char> >::__long", %"struct.std::__1::basic_string<char, std::__1::char_traits<char>, std::__1::allocator<char> >::__long"* %494, i32 0, i32 2, !dbg !6041
  %496 = load i8*, i8** %495, align 8, !dbg !6041
  br label %510, !dbg !6029

; <label>:497                                     ; preds = %463
  store %"class.std::__1::basic_string"* %471, %"class.std::__1::basic_string"** %86, align 8, !dbg !6042
  %498 = load %"class.std::__1::basic_string"*, %"class.std::__1::basic_string"** %86, align 8, !dbg !6042
  %499 = getelementptr inbounds %"class.std::__1::basic_string", %"class.std::__1::basic_string"* %498, i32 0, i32 0, !dbg !6043
  store %"class.std::__1::__compressed_pair"* %499, %"class.std::__1::__compressed_pair"** %85, align 8, !dbg !6043
  %500 = load %"class.std::__1::__compressed_pair"*, %"class.std::__1::__compressed_pair"** %85, align 8, !dbg !6043
  %501 = bitcast %"class.std::__1::__compressed_pair"* %500 to %"class.std::__1::__libcpp_compressed_pair_imp"*, !dbg !6044
  store %"class.std::__1::__libcpp_compressed_pair_imp"* %501, %"class.std::__1::__libcpp_compressed_pair_imp"** %84, align 8, !dbg !6044
  %502 = load %"class.std::__1::__libcpp_compressed_pair_imp"*, %"class.std::__1::__libcpp_compressed_pair_imp"** %84, align 8, !dbg !6044
  %503 = getelementptr inbounds %"class.std::__1::__libcpp_compressed_pair_imp", %"class.std::__1::__libcpp_compressed_pair_imp"* %502, i32 0, i32 0, !dbg !6045
  %504 = getelementptr inbounds %"struct.std::__1::basic_string<char, std::__1::char_traits<char>, std::__1::allocator<char> >::__rep", %"struct.std::__1::basic_string<char, std::__1::char_traits<char>, std::__1::allocator<char> >::__rep"* %503, i32 0, i32 0, !dbg !6046
  %505 = bitcast %union.anon* %504 to %"struct.std::__1::basic_string<char, std::__1::char_traits<char>, std::__1::allocator<char> >::__short"*, !dbg !6046
  %506 = getelementptr inbounds %"struct.std::__1::basic_string<char, std::__1::char_traits<char>, std::__1::allocator<char> >::__short", %"struct.std::__1::basic_string<char, std::__1::char_traits<char>, std::__1::allocator<char> >::__short"* %505, i32 0, i32 1, !dbg !6047
  %507 = getelementptr inbounds [23 x i8], [23 x i8]* %506, i64 0, i64 0, !dbg !6043
  store i8* %507, i8** %83, align 8, !dbg !6048
  %508 = load i8*, i8** %83, align 8, !dbg !6049
  store i8* %508, i8** %82, align 8, !dbg !6050
  %509 = load i8*, i8** %82, align 8, !dbg !6051
  br label %510, !dbg !6029

; <label>:510                                     ; preds = %486, %497
  %511 = phi i8* [ %496, %486 ], [ %509, %497 ], !dbg !6029
  store i8* %511, i8** %78, align 8, !dbg !6052
  %512 = load i8*, i8** %78, align 8, !dbg !6053
  %513 = getelementptr inbounds %"class.std::__1::basic_stringbuf", %"class.std::__1::basic_stringbuf"* %138, i32 0, i32 1, !dbg !6054
  store %"class.std::__1::basic_string"* %513, %"class.std::__1::basic_string"** %105, align 8, !dbg !6054
  %514 = load %"class.std::__1::basic_string"*, %"class.std::__1::basic_string"** %105, align 8, !dbg !6054
  store %"class.std::__1::basic_string"* %514, %"class.std::__1::basic_string"** %104, align 8, !dbg !6055
  %515 = load %"class.std::__1::basic_string"*, %"class.std::__1::basic_string"** %104, align 8, !dbg !6055
  store %"class.std::__1::basic_string"* %515, %"class.std::__1::basic_string"** %103, align 8, !dbg !6056
  %516 = load %"class.std::__1::basic_string"*, %"class.std::__1::basic_string"** %103, align 8, !dbg !6056
  %517 = getelementptr inbounds %"class.std::__1::basic_string", %"class.std::__1::basic_string"* %516, i32 0, i32 0, !dbg !6057
  store %"class.std::__1::__compressed_pair"* %517, %"class.std::__1::__compressed_pair"** %102, align 8, !dbg !6057
  %518 = load %"class.std::__1::__compressed_pair"*, %"class.std::__1::__compressed_pair"** %102, align 8, !dbg !6057
  %519 = bitcast %"class.std::__1::__compressed_pair"* %518 to %"class.std::__1::__libcpp_compressed_pair_imp"*, !dbg !6058
  store %"class.std::__1::__libcpp_compressed_pair_imp"* %519, %"class.std::__1::__libcpp_compressed_pair_imp"** %101, align 8, !dbg !6058
  %520 = load %"class.std::__1::__libcpp_compressed_pair_imp"*, %"class.std::__1::__libcpp_compressed_pair_imp"** %101, align 8, !dbg !6058
  %521 = getelementptr inbounds %"class.std::__1::__libcpp_compressed_pair_imp", %"class.std::__1::__libcpp_compressed_pair_imp"* %520, i32 0, i32 0, !dbg !6059
  %522 = getelementptr inbounds %"struct.std::__1::basic_string<char, std::__1::char_traits<char>, std::__1::allocator<char> >::__rep", %"struct.std::__1::basic_string<char, std::__1::char_traits<char>, std::__1::allocator<char> >::__rep"* %521, i32 0, i32 0, !dbg !6060
  %523 = bitcast %union.anon* %522 to %"struct.std::__1::basic_string<char, std::__1::char_traits<char>, std::__1::allocator<char> >::__short"*, !dbg !6060
  %524 = getelementptr inbounds %"struct.std::__1::basic_string<char, std::__1::char_traits<char>, std::__1::allocator<char> >::__short", %"struct.std::__1::basic_string<char, std::__1::char_traits<char>, std::__1::allocator<char> >::__short"* %523, i32 0, i32 0, !dbg !6061
  %525 = bitcast %union.anon.0* %524 to i8*, !dbg !6061
  %526 = load i8, i8* %525, align 8, !dbg !6061
  %527 = zext i8 %526 to i32, !dbg !6057
  %528 = and i32 %527, 1, !dbg !6062
  %529 = icmp ne i32 %528, 0, !dbg !6057
  br i1 %529, label %530, label %541, !dbg !6056

; <label>:530                                     ; preds = %510
  store %"class.std::__1::basic_string"* %515, %"class.std::__1::basic_string"** %95, align 8, !dbg !6063
  %531 = load %"class.std::__1::basic_string"*, %"class.std::__1::basic_string"** %95, align 8, !dbg !6063
  %532 = getelementptr inbounds %"class.std::__1::basic_string", %"class.std::__1::basic_string"* %531, i32 0, i32 0, !dbg !6064
  store %"class.std::__1::__compressed_pair"* %532, %"class.std::__1::__compressed_pair"** %94, align 8, !dbg !6064
  %533 = load %"class.std::__1::__compressed_pair"*, %"class.std::__1::__compressed_pair"** %94, align 8, !dbg !6064
  %534 = bitcast %"class.std::__1::__compressed_pair"* %533 to %"class.std::__1::__libcpp_compressed_pair_imp"*, !dbg !6065
  store %"class.std::__1::__libcpp_compressed_pair_imp"* %534, %"class.std::__1::__libcpp_compressed_pair_imp"** %93, align 8, !dbg !6065
  %535 = load %"class.std::__1::__libcpp_compressed_pair_imp"*, %"class.std::__1::__libcpp_compressed_pair_imp"** %93, align 8, !dbg !6065
  %536 = getelementptr inbounds %"class.std::__1::__libcpp_compressed_pair_imp", %"class.std::__1::__libcpp_compressed_pair_imp"* %535, i32 0, i32 0, !dbg !6066
  %537 = getelementptr inbounds %"struct.std::__1::basic_string<char, std::__1::char_traits<char>, std::__1::allocator<char> >::__rep", %"struct.std::__1::basic_string<char, std::__1::char_traits<char>, std::__1::allocator<char> >::__rep"* %536, i32 0, i32 0, !dbg !6067
  %538 = bitcast %union.anon* %537 to %"struct.std::__1::basic_string<char, std::__1::char_traits<char>, std::__1::allocator<char> >::__long"*, !dbg !6067
  %539 = getelementptr inbounds %"struct.std::__1::basic_string<char, std::__1::char_traits<char>, std::__1::allocator<char> >::__long", %"struct.std::__1::basic_string<char, std::__1::char_traits<char>, std::__1::allocator<char> >::__long"* %538, i32 0, i32 2, !dbg !6068
  %540 = load i8*, i8** %539, align 8, !dbg !6068
  br label %554, !dbg !6056

; <label>:541                                     ; preds = %510
  store %"class.std::__1::basic_string"* %515, %"class.std::__1::basic_string"** %100, align 8, !dbg !6069
  %542 = load %"class.std::__1::basic_string"*, %"class.std::__1::basic_string"** %100, align 8, !dbg !6069
  %543 = getelementptr inbounds %"class.std::__1::basic_string", %"class.std::__1::basic_string"* %542, i32 0, i32 0, !dbg !6070
  store %"class.std::__1::__compressed_pair"* %543, %"class.std::__1::__compressed_pair"** %99, align 8, !dbg !6070
  %544 = load %"class.std::__1::__compressed_pair"*, %"class.std::__1::__compressed_pair"** %99, align 8, !dbg !6070
  %545 = bitcast %"class.std::__1::__compressed_pair"* %544 to %"class.std::__1::__libcpp_compressed_pair_imp"*, !dbg !6071
  store %"class.std::__1::__libcpp_compressed_pair_imp"* %545, %"class.std::__1::__libcpp_compressed_pair_imp"** %98, align 8, !dbg !6071
  %546 = load %"class.std::__1::__libcpp_compressed_pair_imp"*, %"class.std::__1::__libcpp_compressed_pair_imp"** %98, align 8, !dbg !6071
  %547 = getelementptr inbounds %"class.std::__1::__libcpp_compressed_pair_imp", %"class.std::__1::__libcpp_compressed_pair_imp"* %546, i32 0, i32 0, !dbg !6072
  %548 = getelementptr inbounds %"struct.std::__1::basic_string<char, std::__1::char_traits<char>, std::__1::allocator<char> >::__rep", %"struct.std::__1::basic_string<char, std::__1::char_traits<char>, std::__1::allocator<char> >::__rep"* %547, i32 0, i32 0, !dbg !6073
  %549 = bitcast %union.anon* %548 to %"struct.std::__1::basic_string<char, std::__1::char_traits<char>, std::__1::allocator<char> >::__short"*, !dbg !6073
  %550 = getelementptr inbounds %"struct.std::__1::basic_string<char, std::__1::char_traits<char>, std::__1::allocator<char> >::__short", %"struct.std::__1::basic_string<char, std::__1::char_traits<char>, std::__1::allocator<char> >::__short"* %549, i32 0, i32 1, !dbg !6074
  %551 = getelementptr inbounds [23 x i8], [23 x i8]* %550, i64 0, i64 0, !dbg !6070
  store i8* %551, i8** %97, align 8, !dbg !6075
  %552 = load i8*, i8** %97, align 8, !dbg !6076
  store i8* %552, i8** %96, align 8, !dbg !6077
  %553 = load i8*, i8** %96, align 8, !dbg !6078
  br label %554, !dbg !6056

; <label>:554                                     ; preds = %530, %541
  %555 = phi i8* [ %540, %530 ], [ %553, %541 ], !dbg !6056
  store i8* %555, i8** %92, align 8, !dbg !6079
  %556 = load i8*, i8** %92, align 8, !dbg !6080
  %557 = getelementptr inbounds %"class.std::__1::basic_stringbuf", %"class.std::__1::basic_stringbuf"* %138, i32 0, i32 1, !dbg !6081
  store %"class.std::__1::basic_string"* %557, %"class.std::__1::basic_string"** %115, align 8, !dbg !6081
  %558 = load %"class.std::__1::basic_string"*, %"class.std::__1::basic_string"** %115, align 8, !dbg !6081
  store %"class.std::__1::basic_string"* %558, %"class.std::__1::basic_string"** %114, align 8, !dbg !6082
  %559 = load %"class.std::__1::basic_string"*, %"class.std::__1::basic_string"** %114, align 8, !dbg !6082
  %560 = getelementptr inbounds %"class.std::__1::basic_string", %"class.std::__1::basic_string"* %559, i32 0, i32 0, !dbg !6083
  store %"class.std::__1::__compressed_pair"* %560, %"class.std::__1::__compressed_pair"** %113, align 8, !dbg !6083
  %561 = load %"class.std::__1::__compressed_pair"*, %"class.std::__1::__compressed_pair"** %113, align 8, !dbg !6083
  %562 = bitcast %"class.std::__1::__compressed_pair"* %561 to %"class.std::__1::__libcpp_compressed_pair_imp"*, !dbg !6084
  store %"class.std::__1::__libcpp_compressed_pair_imp"* %562, %"class.std::__1::__libcpp_compressed_pair_imp"** %112, align 8, !dbg !6084
  %563 = load %"class.std::__1::__libcpp_compressed_pair_imp"*, %"class.std::__1::__libcpp_compressed_pair_imp"** %112, align 8, !dbg !6084
  %564 = getelementptr inbounds %"class.std::__1::__libcpp_compressed_pair_imp", %"class.std::__1::__libcpp_compressed_pair_imp"* %563, i32 0, i32 0, !dbg !6085
  %565 = getelementptr inbounds %"struct.std::__1::basic_string<char, std::__1::char_traits<char>, std::__1::allocator<char> >::__rep", %"struct.std::__1::basic_string<char, std::__1::char_traits<char>, std::__1::allocator<char> >::__rep"* %564, i32 0, i32 0, !dbg !6086
  %566 = bitcast %union.anon* %565 to %"struct.std::__1::basic_string<char, std::__1::char_traits<char>, std::__1::allocator<char> >::__short"*, !dbg !6086
  %567 = getelementptr inbounds %"struct.std::__1::basic_string<char, std::__1::char_traits<char>, std::__1::allocator<char> >::__short", %"struct.std::__1::basic_string<char, std::__1::char_traits<char>, std::__1::allocator<char> >::__short"* %566, i32 0, i32 0, !dbg !6087
  %568 = bitcast %union.anon.0* %567 to i8*, !dbg !6087
  %569 = load i8, i8* %568, align 8, !dbg !6087
  %570 = zext i8 %569 to i32, !dbg !6083
  %571 = and i32 %570, 1, !dbg !6088
  %572 = icmp ne i32 %571, 0, !dbg !6083
  br i1 %572, label %573, label %584, !dbg !6082

; <label>:573                                     ; preds = %554
  store %"class.std::__1::basic_string"* %558, %"class.std::__1::basic_string"** %108, align 8, !dbg !6089
  %574 = load %"class.std::__1::basic_string"*, %"class.std::__1::basic_string"** %108, align 8, !dbg !6089
  %575 = getelementptr inbounds %"class.std::__1::basic_string", %"class.std::__1::basic_string"* %574, i32 0, i32 0, !dbg !6090
  store %"class.std::__1::__compressed_pair"* %575, %"class.std::__1::__compressed_pair"** %107, align 8, !dbg !6090
  %576 = load %"class.std::__1::__compressed_pair"*, %"class.std::__1::__compressed_pair"** %107, align 8, !dbg !6090
  %577 = bitcast %"class.std::__1::__compressed_pair"* %576 to %"class.std::__1::__libcpp_compressed_pair_imp"*, !dbg !6091
  store %"class.std::__1::__libcpp_compressed_pair_imp"* %577, %"class.std::__1::__libcpp_compressed_pair_imp"** %106, align 8, !dbg !6091
  %578 = load %"class.std::__1::__libcpp_compressed_pair_imp"*, %"class.std::__1::__libcpp_compressed_pair_imp"** %106, align 8, !dbg !6091
  %579 = getelementptr inbounds %"class.std::__1::__libcpp_compressed_pair_imp", %"class.std::__1::__libcpp_compressed_pair_imp"* %578, i32 0, i32 0, !dbg !6092
  %580 = getelementptr inbounds %"struct.std::__1::basic_string<char, std::__1::char_traits<char>, std::__1::allocator<char> >::__rep", %"struct.std::__1::basic_string<char, std::__1::char_traits<char>, std::__1::allocator<char> >::__rep"* %579, i32 0, i32 0, !dbg !6093
  %581 = bitcast %union.anon* %580 to %"struct.std::__1::basic_string<char, std::__1::char_traits<char>, std::__1::allocator<char> >::__long"*, !dbg !6093
  %582 = getelementptr inbounds %"struct.std::__1::basic_string<char, std::__1::char_traits<char>, std::__1::allocator<char> >::__long", %"struct.std::__1::basic_string<char, std::__1::char_traits<char>, std::__1::allocator<char> >::__long"* %581, i32 0, i32 1, !dbg !6094
  %583 = load i64, i64* %582, align 8, !dbg !6094
  br label %599, !dbg !6082

; <label>:584                                     ; preds = %554
  store %"class.std::__1::basic_string"* %558, %"class.std::__1::basic_string"** %111, align 8, !dbg !6095
  %585 = load %"class.std::__1::basic_string"*, %"class.std::__1::basic_string"** %111, align 8, !dbg !6095
  %586 = getelementptr inbounds %"class.std::__1::basic_string", %"class.std::__1::basic_string"* %585, i32 0, i32 0, !dbg !6096
  store %"class.std::__1::__compressed_pair"* %586, %"class.std::__1::__compressed_pair"** %110, align 8, !dbg !6096
  %587 = load %"class.std::__1::__compressed_pair"*, %"class.std::__1::__compressed_pair"** %110, align 8, !dbg !6096
  %588 = bitcast %"class.std::__1::__compressed_pair"* %587 to %"class.std::__1::__libcpp_compressed_pair_imp"*, !dbg !6097
  store %"class.std::__1::__libcpp_compressed_pair_imp"* %588, %"class.std::__1::__libcpp_compressed_pair_imp"** %109, align 8, !dbg !6097
  %589 = load %"class.std::__1::__libcpp_compressed_pair_imp"*, %"class.std::__1::__libcpp_compressed_pair_imp"** %109, align 8, !dbg !6097
  %590 = getelementptr inbounds %"class.std::__1::__libcpp_compressed_pair_imp", %"class.std::__1::__libcpp_compressed_pair_imp"* %589, i32 0, i32 0, !dbg !6098
  %591 = getelementptr inbounds %"struct.std::__1::basic_string<char, std::__1::char_traits<char>, std::__1::allocator<char> >::__rep", %"struct.std::__1::basic_string<char, std::__1::char_traits<char>, std::__1::allocator<char> >::__rep"* %590, i32 0, i32 0, !dbg !6099
  %592 = bitcast %union.anon* %591 to %"struct.std::__1::basic_string<char, std::__1::char_traits<char>, std::__1::allocator<char> >::__short"*, !dbg !6099
  %593 = getelementptr inbounds %"struct.std::__1::basic_string<char, std::__1::char_traits<char>, std::__1::allocator<char> >::__short", %"struct.std::__1::basic_string<char, std::__1::char_traits<char>, std::__1::allocator<char> >::__short"* %592, i32 0, i32 0, !dbg !6100
  %594 = bitcast %union.anon.0* %593 to i8*, !dbg !6100
  %595 = load i8, i8* %594, align 8, !dbg !6100
  %596 = zext i8 %595 to i32, !dbg !6096
  %597 = ashr i32 %596, 1, !dbg !6101
  %598 = sext i32 %597 to i64, !dbg !6096
  br label %599, !dbg !6082

; <label>:599                                     ; preds = %573, %584
  %600 = phi i64 [ %583, %573 ], [ %598, %584 ], !dbg !6082
  %601 = getelementptr inbounds i8, i8* %556, i64 %600, !dbg !6102
  store %"class.std::__1::basic_streambuf"* %468, %"class.std::__1::basic_streambuf"** %116, align 8, !dbg !6026
  store i8* %512, i8** %117, align 8, !dbg !6026
  store i8* %601, i8** %118, align 8, !dbg !6026
  %602 = load %"class.std::__1::basic_streambuf"*, %"class.std::__1::basic_streambuf"** %116, align 8, !dbg !6026
  %603 = load i8*, i8** %117, align 8, !dbg !6103
  %604 = getelementptr inbounds %"class.std::__1::basic_streambuf", %"class.std::__1::basic_streambuf"* %602, i32 0, i32 6, !dbg !6104
  store i8* %603, i8** %604, align 8, !dbg !6105
  %605 = getelementptr inbounds %"class.std::__1::basic_streambuf", %"class.std::__1::basic_streambuf"* %602, i32 0, i32 5, !dbg !6106
  store i8* %603, i8** %605, align 8, !dbg !6107
  %606 = load i8*, i8** %118, align 8, !dbg !6108
  %607 = getelementptr inbounds %"class.std::__1::basic_streambuf", %"class.std::__1::basic_streambuf"* %602, i32 0, i32 7, !dbg !6109
  store i8* %606, i8** %607, align 8, !dbg !6110
  %608 = getelementptr inbounds %"class.std::__1::basic_stringbuf", %"class.std::__1::basic_stringbuf"* %138, i32 0, i32 3, !dbg !6111
  %609 = load i32, i32* %608, align 8, !dbg !6111
  %610 = and i32 %609, 3, !dbg !6112
  %611 = icmp ne i32 %610, 0, !dbg !6111
  br i1 %611, label %612, label %622, !dbg !6113

; <label>:612                                     ; preds = %599
  %613 = bitcast %"class.std::__1::basic_stringbuf"* %138 to %"class.std::__1::basic_streambuf"*, !dbg !6114
  %614 = load i64, i64* %137, align 8, !dbg !6115
  %615 = trunc i64 %614 to i32, !dbg !6115
  store %"class.std::__1::basic_streambuf"* %613, %"class.std::__1::basic_streambuf"** %119, align 8, !dbg !6114
  store i32 %615, i32* %120, align 4, !dbg !6114
  %616 = load %"class.std::__1::basic_streambuf"*, %"class.std::__1::basic_streambuf"** %119, align 8, !dbg !6114
  %617 = load i32, i32* %120, align 4, !dbg !6116
  %618 = getelementptr inbounds %"class.std::__1::basic_streambuf", %"class.std::__1::basic_streambuf"* %616, i32 0, i32 6, !dbg !6117
  %619 = load i8*, i8** %618, align 8, !dbg !6118
  %620 = sext i32 %617 to i64, !dbg !6118
  %621 = getelementptr inbounds i8, i8* %619, i64 %620, !dbg !6118
  store i8* %621, i8** %618, align 8, !dbg !6118
  br label %622, !dbg !6114

; <label>:622                                     ; preds = %612, %599
  br label %623, !dbg !6119

; <label>:623                                     ; preds = %622, %336
  ret void, !dbg !6120
}

; Function Attrs: nounwind
declare void @_ZNSt3__112basic_stringIcNS_11char_traitsIcEENS_9allocatorIcEEED1Ev(%"class.std::__1::basic_string"*) #5

; Function Attrs: inlinehint nounwind ssp uwtable
define linkonce_odr void @_ZNSt3__115basic_stringbufIcNS_11char_traitsIcEENS_9allocatorIcEEED1Ev(%"class.std::__1::basic_stringbuf"*) unnamed_addr #3 align 2 !dbg !6121 {
  %2 = alloca %"class.std::__1::basic_stringbuf"*, align 8
  store %"class.std::__1::basic_stringbuf"* %0, %"class.std::__1::basic_stringbuf"** %2, align 8
  call void @llvm.dbg.declare(metadata %"class.std::__1::basic_stringbuf"** %2, metadata !6125, metadata !3948), !dbg !6126
  %3 = load %"class.std::__1::basic_stringbuf"*, %"class.std::__1::basic_stringbuf"** %2, align 8
  call void @_ZNSt3__115basic_stringbufIcNS_11char_traitsIcEENS_9allocatorIcEEED2Ev(%"class.std::__1::basic_stringbuf"* %3) #10, !dbg !6127
  ret void, !dbg !6127
}

; Function Attrs: inlinehint nounwind ssp uwtable
define linkonce_odr void @_ZNSt3__115basic_stringbufIcNS_11char_traitsIcEENS_9allocatorIcEEED0Ev(%"class.std::__1::basic_stringbuf"*) unnamed_addr #3 align 2 !dbg !6128 {
  %2 = alloca %"class.std::__1::basic_stringbuf"*, align 8
  store %"class.std::__1::basic_stringbuf"* %0, %"class.std::__1::basic_stringbuf"** %2, align 8
  call void @llvm.dbg.declare(metadata %"class.std::__1::basic_stringbuf"** %2, metadata !6129, metadata !3948), !dbg !6130
  %3 = load %"class.std::__1::basic_stringbuf"*, %"class.std::__1::basic_stringbuf"** %2, align 8
  call void @_ZNSt3__115basic_stringbufIcNS_11char_traitsIcEENS_9allocatorIcEEED1Ev(%"class.std::__1::basic_stringbuf"* %3) #10, !dbg !6131
  %4 = bitcast %"class.std::__1::basic_stringbuf"* %3 to i8*, !dbg !6131
  call void @_ZdlPv(i8* %4) #11, !dbg !6131
  ret void, !dbg !6131
}

declare void @_ZNSt3__115basic_streambufIcNS_11char_traitsIcEEE5imbueERKNS_6localeE(%"class.std::__1::basic_streambuf"*, %"class.std::__1::locale"* dereferenceable(8)) #1

declare %"class.std::__1::basic_streambuf"* @_ZNSt3__115basic_streambufIcNS_11char_traitsIcEEE6setbufEPcl(%"class.std::__1::basic_streambuf"*, i8*, i64) #1

; Function Attrs: nounwind ssp uwtable
define linkonce_odr void @_ZNSt3__115basic_stringbufIcNS_11char_traitsIcEENS_9allocatorIcEEE7seekoffExNS_8ios_base7seekdirEj(%"class.std::__1::fpos"* noalias sret, %"class.std::__1::basic_stringbuf"*, i64, i32, i32) unnamed_addr #0 align 2 !dbg !6132 {
  %6 = alloca %"class.std::__1::basic_streambuf"*, align 8
  call void @llvm.dbg.declare(metadata %"class.std::__1::basic_streambuf"** %6, metadata !6133, metadata !3948), !dbg !6136
  %7 = alloca %"class.std::__1::fpos"*, align 8
  call void @llvm.dbg.declare(metadata %"class.std::__1::fpos"** %7, metadata !6139, metadata !3948), !dbg !6142
  %8 = alloca i64, align 8
  call void @llvm.dbg.declare(metadata i64* %8, metadata !6147, metadata !3948), !dbg !6148
  %9 = alloca %"class.std::__1::fpos"*, align 8
  call void @llvm.dbg.declare(metadata %"class.std::__1::fpos"** %9, metadata !6149, metadata !3948), !dbg !6150
  %10 = alloca i64, align 8
  call void @llvm.dbg.declare(metadata i64* %10, metadata !6151, metadata !3948), !dbg !6152
  %11 = alloca %"class.std::__1::fpos"*, align 8
  call void @llvm.dbg.declare(metadata %"class.std::__1::fpos"** %11, metadata !6139, metadata !3948), !dbg !6153
  %12 = alloca i64, align 8
  call void @llvm.dbg.declare(metadata i64* %12, metadata !6147, metadata !3948), !dbg !6157
  %13 = alloca %"class.std::__1::fpos"*, align 8
  call void @llvm.dbg.declare(metadata %"class.std::__1::fpos"** %13, metadata !6149, metadata !3948), !dbg !6158
  %14 = alloca i64, align 8
  call void @llvm.dbg.declare(metadata i64* %14, metadata !6151, metadata !3948), !dbg !6159
  %15 = alloca %"class.std::__1::basic_streambuf"*, align 8
  call void @llvm.dbg.declare(metadata %"class.std::__1::basic_streambuf"** %15, metadata !6160, metadata !3948), !dbg !6162
  %16 = alloca %"class.std::__1::basic_streambuf"*, align 8
  call void @llvm.dbg.declare(metadata %"class.std::__1::basic_streambuf"** %16, metadata !6166, metadata !3948), !dbg !6168
  %17 = alloca %"class.std::__1::basic_streambuf"*, align 8
  call void @llvm.dbg.declare(metadata %"class.std::__1::basic_streambuf"** %17, metadata !6133, metadata !3948), !dbg !6170
  %18 = alloca %"class.std::__1::basic_streambuf"*, align 8
  call void @llvm.dbg.declare(metadata %"class.std::__1::basic_streambuf"** %18, metadata !6172, metadata !3948), !dbg !6174
  %19 = alloca i8*, align 8
  call void @llvm.dbg.declare(metadata i8** %19, metadata !5101, metadata !3948), !dbg !6176
  %20 = alloca %"class.std::__1::__libcpp_compressed_pair_imp"*, align 8
  call void @llvm.dbg.declare(metadata %"class.std::__1::__libcpp_compressed_pair_imp"** %20, metadata !5111, metadata !3948), !dbg !6179
  %21 = alloca %"class.std::__1::__compressed_pair"*, align 8
  call void @llvm.dbg.declare(metadata %"class.std::__1::__compressed_pair"** %21, metadata !5122, metadata !3948), !dbg !6184
  %22 = alloca %"class.std::__1::basic_string"*, align 8
  call void @llvm.dbg.declare(metadata %"class.std::__1::basic_string"** %22, metadata !5125, metadata !3948), !dbg !6185
  %23 = alloca i8*, align 8
  call void @llvm.dbg.declare(metadata i8** %23, metadata !5127, metadata !3948), !dbg !6186
  %24 = alloca i8*, align 8
  call void @llvm.dbg.declare(metadata i8** %24, metadata !5153, metadata !3948), !dbg !6190
  %25 = alloca %"class.std::__1::__libcpp_compressed_pair_imp"*, align 8
  call void @llvm.dbg.declare(metadata %"class.std::__1::__libcpp_compressed_pair_imp"** %25, metadata !5111, metadata !3948), !dbg !6191
  %26 = alloca %"class.std::__1::__compressed_pair"*, align 8
  call void @llvm.dbg.declare(metadata %"class.std::__1::__compressed_pair"** %26, metadata !5122, metadata !3948), !dbg !6194
  %27 = alloca %"class.std::__1::basic_string"*, align 8
  call void @llvm.dbg.declare(metadata %"class.std::__1::basic_string"** %27, metadata !5159, metadata !3948), !dbg !6195
  %28 = alloca %"class.std::__1::__libcpp_compressed_pair_imp"*, align 8
  call void @llvm.dbg.declare(metadata %"class.std::__1::__libcpp_compressed_pair_imp"** %28, metadata !5111, metadata !3948), !dbg !6196
  %29 = alloca %"class.std::__1::__compressed_pair"*, align 8
  call void @llvm.dbg.declare(metadata %"class.std::__1::__compressed_pair"** %29, metadata !5122, metadata !3948), !dbg !6200
  %30 = alloca %"class.std::__1::basic_string"*, align 8
  call void @llvm.dbg.declare(metadata %"class.std::__1::basic_string"** %30, metadata !5167, metadata !3948), !dbg !6201
  %31 = alloca %"class.std::__1::basic_string"*, align 8
  call void @llvm.dbg.declare(metadata %"class.std::__1::basic_string"** %31, metadata !5169, metadata !3948), !dbg !6202
  %32 = alloca %"class.std::__1::basic_string"*, align 8
  call void @llvm.dbg.declare(metadata %"class.std::__1::basic_string"** %32, metadata !5171, metadata !3948), !dbg !6203
  %33 = alloca %"class.std::__1::fpos"*, align 8
  call void @llvm.dbg.declare(metadata %"class.std::__1::fpos"** %33, metadata !6139, metadata !3948), !dbg !6204
  %34 = alloca i64, align 8
  call void @llvm.dbg.declare(metadata i64* %34, metadata !6147, metadata !3948), !dbg !6207
  %35 = alloca %"class.std::__1::fpos"*, align 8
  call void @llvm.dbg.declare(metadata %"class.std::__1::fpos"** %35, metadata !6149, metadata !3948), !dbg !6208
  %36 = alloca i64, align 8
  call void @llvm.dbg.declare(metadata i64* %36, metadata !6151, metadata !3948), !dbg !6209
  %37 = alloca i8*, align 8
  call void @llvm.dbg.declare(metadata i8** %37, metadata !5101, metadata !3948), !dbg !6210
  %38 = alloca %"class.std::__1::__libcpp_compressed_pair_imp"*, align 8
  call void @llvm.dbg.declare(metadata %"class.std::__1::__libcpp_compressed_pair_imp"** %38, metadata !5111, metadata !3948), !dbg !6214
  %39 = alloca %"class.std::__1::__compressed_pair"*, align 8
  call void @llvm.dbg.declare(metadata %"class.std::__1::__compressed_pair"** %39, metadata !5122, metadata !3948), !dbg !6219
  %40 = alloca %"class.std::__1::basic_string"*, align 8
  call void @llvm.dbg.declare(metadata %"class.std::__1::basic_string"** %40, metadata !5125, metadata !3948), !dbg !6220
  %41 = alloca i8*, align 8
  call void @llvm.dbg.declare(metadata i8** %41, metadata !5127, metadata !3948), !dbg !6221
  %42 = alloca i8*, align 8
  call void @llvm.dbg.declare(metadata i8** %42, metadata !5153, metadata !3948), !dbg !6225
  %43 = alloca %"class.std::__1::__libcpp_compressed_pair_imp"*, align 8
  call void @llvm.dbg.declare(metadata %"class.std::__1::__libcpp_compressed_pair_imp"** %43, metadata !5111, metadata !3948), !dbg !6226
  %44 = alloca %"class.std::__1::__compressed_pair"*, align 8
  call void @llvm.dbg.declare(metadata %"class.std::__1::__compressed_pair"** %44, metadata !5122, metadata !3948), !dbg !6229
  %45 = alloca %"class.std::__1::basic_string"*, align 8
  call void @llvm.dbg.declare(metadata %"class.std::__1::basic_string"** %45, metadata !5159, metadata !3948), !dbg !6230
  %46 = alloca %"class.std::__1::__libcpp_compressed_pair_imp"*, align 8
  call void @llvm.dbg.declare(metadata %"class.std::__1::__libcpp_compressed_pair_imp"** %46, metadata !5111, metadata !3948), !dbg !6231
  %47 = alloca %"class.std::__1::__compressed_pair"*, align 8
  call void @llvm.dbg.declare(metadata %"class.std::__1::__compressed_pair"** %47, metadata !5122, metadata !3948), !dbg !6235
  %48 = alloca %"class.std::__1::basic_string"*, align 8
  call void @llvm.dbg.declare(metadata %"class.std::__1::basic_string"** %48, metadata !5167, metadata !3948), !dbg !6236
  %49 = alloca %"class.std::__1::basic_string"*, align 8
  call void @llvm.dbg.declare(metadata %"class.std::__1::basic_string"** %49, metadata !5169, metadata !3948), !dbg !6237
  %50 = alloca %"class.std::__1::basic_string"*, align 8
  call void @llvm.dbg.declare(metadata %"class.std::__1::basic_string"** %50, metadata !5171, metadata !3948), !dbg !6238
  %51 = alloca %"class.std::__1::fpos"*, align 8
  call void @llvm.dbg.declare(metadata %"class.std::__1::fpos"** %51, metadata !6139, metadata !3948), !dbg !6239
  %52 = alloca i64, align 8
  call void @llvm.dbg.declare(metadata i64* %52, metadata !6147, metadata !3948), !dbg !6242
  %53 = alloca %"class.std::__1::fpos"*, align 8
  call void @llvm.dbg.declare(metadata %"class.std::__1::fpos"** %53, metadata !6149, metadata !3948), !dbg !6243
  %54 = alloca i64, align 8
  call void @llvm.dbg.declare(metadata i64* %54, metadata !6151, metadata !3948), !dbg !6244
  %55 = alloca %"class.std::__1::basic_streambuf"*, align 8
  call void @llvm.dbg.declare(metadata %"class.std::__1::basic_streambuf"** %55, metadata !6160, metadata !3948), !dbg !6245
  %56 = alloca %"class.std::__1::fpos"*, align 8
  call void @llvm.dbg.declare(metadata %"class.std::__1::fpos"** %56, metadata !6139, metadata !3948), !dbg !6250
  %57 = alloca i64, align 8
  call void @llvm.dbg.declare(metadata i64* %57, metadata !6147, metadata !3948), !dbg !6253
  %58 = alloca %"class.std::__1::fpos"*, align 8
  call void @llvm.dbg.declare(metadata %"class.std::__1::fpos"** %58, metadata !6149, metadata !3948), !dbg !6254
  %59 = alloca i64, align 8
  call void @llvm.dbg.declare(metadata i64* %59, metadata !6151, metadata !3948), !dbg !6255
  %60 = alloca %"class.std::__1::basic_streambuf"*, align 8
  call void @llvm.dbg.declare(metadata %"class.std::__1::basic_streambuf"** %60, metadata !6133, metadata !3948), !dbg !6256
  %61 = alloca %"class.std::__1::fpos"*, align 8
  call void @llvm.dbg.declare(metadata %"class.std::__1::fpos"** %61, metadata !6139, metadata !3948), !dbg !6259
  %62 = alloca i64, align 8
  call void @llvm.dbg.declare(metadata i64* %62, metadata !6147, metadata !3948), !dbg !6262
  %63 = alloca %"class.std::__1::fpos"*, align 8
  call void @llvm.dbg.declare(metadata %"class.std::__1::fpos"** %63, metadata !6149, metadata !3948), !dbg !6263
  %64 = alloca i64, align 8
  call void @llvm.dbg.declare(metadata i64* %64, metadata !6151, metadata !3948), !dbg !6264
  %65 = alloca %"class.std::__1::basic_streambuf"*, align 8
  call void @llvm.dbg.declare(metadata %"class.std::__1::basic_streambuf"** %65, metadata !6166, metadata !3948), !dbg !6265
  %66 = alloca %"class.std::__1::basic_streambuf"*, align 8
  call void @llvm.dbg.declare(metadata %"class.std::__1::basic_streambuf"** %66, metadata !6166, metadata !3948), !dbg !6268
  %67 = alloca %"class.std::__1::basic_streambuf"*, align 8
  call void @llvm.dbg.declare(metadata %"class.std::__1::basic_streambuf"** %67, metadata !5592, metadata !3948), !dbg !6270
  %68 = alloca i8*, align 8
  call void @llvm.dbg.declare(metadata i8** %68, metadata !5596, metadata !3948), !dbg !6272
  %69 = alloca i8*, align 8
  call void @llvm.dbg.declare(metadata i8** %69, metadata !5598, metadata !3948), !dbg !6273
  %70 = alloca i8*, align 8
  call void @llvm.dbg.declare(metadata i8** %70, metadata !5600, metadata !3948), !dbg !6274
  %71 = alloca %"class.std::__1::basic_streambuf"*, align 8
  call void @llvm.dbg.declare(metadata %"class.std::__1::basic_streambuf"** %71, metadata !6172, metadata !3948), !dbg !6275
  %72 = alloca %"class.std::__1::basic_streambuf"*, align 8
  call void @llvm.dbg.declare(metadata %"class.std::__1::basic_streambuf"** %72, metadata !6279, metadata !3948), !dbg !6281
  %73 = alloca %"class.std::__1::basic_streambuf"*, align 8
  call void @llvm.dbg.declare(metadata %"class.std::__1::basic_streambuf"** %73, metadata !5778, metadata !3948), !dbg !6283
  %74 = alloca i8*, align 8
  call void @llvm.dbg.declare(metadata i8** %74, metadata !5782, metadata !3948), !dbg !6285
  %75 = alloca i8*, align 8
  call void @llvm.dbg.declare(metadata i8** %75, metadata !5784, metadata !3948), !dbg !6286
  %76 = alloca %"class.std::__1::basic_streambuf"*, align 8
  call void @llvm.dbg.declare(metadata %"class.std::__1::basic_streambuf"** %76, metadata !5786, metadata !3948), !dbg !6287
  %77 = alloca i32, align 4
  call void @llvm.dbg.declare(metadata i32* %77, metadata !5791, metadata !3948), !dbg !6289
  %78 = alloca %"class.std::__1::fpos"*, align 8
  call void @llvm.dbg.declare(metadata %"class.std::__1::fpos"** %78, metadata !6139, metadata !3948), !dbg !6290
  %79 = alloca i64, align 8
  call void @llvm.dbg.declare(metadata i64* %79, metadata !6147, metadata !3948), !dbg !6293
  %80 = alloca %"class.std::__1::fpos"*, align 8
  call void @llvm.dbg.declare(metadata %"class.std::__1::fpos"** %80, metadata !6149, metadata !3948), !dbg !6294
  %81 = alloca i64, align 8
  call void @llvm.dbg.declare(metadata i64* %81, metadata !6151, metadata !3948), !dbg !6295
  %82 = alloca %"class.std::__1::basic_streambuf"*, align 8
  call void @llvm.dbg.declare(metadata %"class.std::__1::basic_streambuf"** %82, metadata !6133, metadata !3948), !dbg !6296
  %83 = alloca %"class.std::__1::basic_stringbuf"*, align 8
  %84 = alloca i64, align 8
  %85 = alloca i32, align 4
  %86 = alloca i32, align 4
  %87 = alloca i64, align 8
  store %"class.std::__1::basic_stringbuf"* %1, %"class.std::__1::basic_stringbuf"** %83, align 8
  call void @llvm.dbg.declare(metadata %"class.std::__1::basic_stringbuf"** %83, metadata !6298, metadata !3948), !dbg !6299
  store i64 %2, i64* %84, align 8
  call void @llvm.dbg.declare(metadata i64* %84, metadata !6300, metadata !3948), !dbg !6301
  store i32 %3, i32* %85, align 4
  call void @llvm.dbg.declare(metadata i32* %85, metadata !6302, metadata !3948), !dbg !6303
  store i32 %4, i32* %86, align 4
  call void @llvm.dbg.declare(metadata i32* %86, metadata !6304, metadata !3948), !dbg !6305
  %88 = load %"class.std::__1::basic_stringbuf"*, %"class.std::__1::basic_stringbuf"** %83, align 8
  %89 = getelementptr inbounds %"class.std::__1::basic_stringbuf", %"class.std::__1::basic_stringbuf"* %88, i32 0, i32 2, !dbg !6306
  %90 = load i8*, i8** %89, align 8, !dbg !6306
  %91 = bitcast %"class.std::__1::basic_stringbuf"* %88 to %"class.std::__1::basic_streambuf"*, !dbg !6307
  store %"class.std::__1::basic_streambuf"* %91, %"class.std::__1::basic_streambuf"** %82, align 8, !dbg !6307
  %92 = load %"class.std::__1::basic_streambuf"*, %"class.std::__1::basic_streambuf"** %82, align 8, !dbg !6307
  %93 = getelementptr inbounds %"class.std::__1::basic_streambuf", %"class.std::__1::basic_streambuf"* %92, i32 0, i32 6, !dbg !6308
  %94 = load i8*, i8** %93, align 8, !dbg !6308
  %95 = icmp ult i8* %90, %94, !dbg !6309
  br i1 %95, label %96, label %102, !dbg !6310

; <label>:96                                      ; preds = %5
  %97 = bitcast %"class.std::__1::basic_stringbuf"* %88 to %"class.std::__1::basic_streambuf"*, !dbg !6311
  store %"class.std::__1::basic_streambuf"* %97, %"class.std::__1::basic_streambuf"** %6, align 8, !dbg !6311
  %98 = load %"class.std::__1::basic_streambuf"*, %"class.std::__1::basic_streambuf"** %6, align 8, !dbg !6311
  %99 = getelementptr inbounds %"class.std::__1::basic_streambuf", %"class.std::__1::basic_streambuf"* %98, i32 0, i32 6, !dbg !6312
  %100 = load i8*, i8** %99, align 8, !dbg !6312
  %101 = getelementptr inbounds %"class.std::__1::basic_stringbuf", %"class.std::__1::basic_stringbuf"* %88, i32 0, i32 2, !dbg !6313
  store i8* %100, i8** %101, align 8, !dbg !6314
  br label %102, !dbg !6313

; <label>:102                                     ; preds = %96, %5
  %103 = load i32, i32* %86, align 4, !dbg !6315
  %104 = and i32 %103, 24, !dbg !6316
  %105 = icmp eq i32 %104, 0, !dbg !6317
  br i1 %105, label %106, label %114, !dbg !6318

; <label>:106                                     ; preds = %102
  store %"class.std::__1::fpos"* %0, %"class.std::__1::fpos"** %9, align 8, !dbg !6319
  store i64 -1, i64* %10, align 8, !dbg !6319
  %107 = load %"class.std::__1::fpos"*, %"class.std::__1::fpos"** %9, align 8, !dbg !6319
  %108 = load i64, i64* %10, align 8, !dbg !6320
  store %"class.std::__1::fpos"* %107, %"class.std::__1::fpos"** %7, align 8, !dbg !6320
  store i64 %108, i64* %8, align 8, !dbg !6320
  %109 = load %"class.std::__1::fpos"*, %"class.std::__1::fpos"** %7, align 8, !dbg !6320
  %110 = getelementptr inbounds %"class.std::__1::fpos", %"class.std::__1::fpos"* %109, i32 0, i32 0, !dbg !6321
  %111 = bitcast %union.__mbstate_t* %110 to i8*, !dbg !6321
  call void @llvm.memset.p0i8.i64(i8* %111, i8 0, i64 128, i32 8, i1 false) #10, !dbg !6321
  %112 = getelementptr inbounds %"class.std::__1::fpos", %"class.std::__1::fpos"* %109, i32 0, i32 1, !dbg !6322
  %113 = load i64, i64* %8, align 8, !dbg !6323
  store i64 %113, i64* %112, align 8, !dbg !6322
  br label %388, !dbg !6324

; <label>:114                                     ; preds = %102
  %115 = load i32, i32* %86, align 4, !dbg !6325
  %116 = and i32 %115, 24, !dbg !6326
  %117 = icmp eq i32 %116, 24, !dbg !6327
  br i1 %117, label %118, label %129, !dbg !6328

; <label>:118                                     ; preds = %114
  %119 = load i32, i32* %85, align 4, !dbg !6329
  %120 = icmp eq i32 %119, 1, !dbg !6330
  br i1 %120, label %121, label %129, !dbg !6331

; <label>:121                                     ; preds = %118
  store %"class.std::__1::fpos"* %0, %"class.std::__1::fpos"** %13, align 8, !dbg !6332
  store i64 -1, i64* %14, align 8, !dbg !6332
  %122 = load %"class.std::__1::fpos"*, %"class.std::__1::fpos"** %13, align 8, !dbg !6332
  %123 = load i64, i64* %14, align 8, !dbg !6333
  store %"class.std::__1::fpos"* %122, %"class.std::__1::fpos"** %11, align 8, !dbg !6333
  store i64 %123, i64* %12, align 8, !dbg !6333
  %124 = load %"class.std::__1::fpos"*, %"class.std::__1::fpos"** %11, align 8, !dbg !6333
  %125 = getelementptr inbounds %"class.std::__1::fpos", %"class.std::__1::fpos"* %124, i32 0, i32 0, !dbg !6334
  %126 = bitcast %union.__mbstate_t* %125 to i8*, !dbg !6334
  call void @llvm.memset.p0i8.i64(i8* %126, i8 0, i64 128, i32 8, i1 false) #10, !dbg !6334
  %127 = getelementptr inbounds %"class.std::__1::fpos", %"class.std::__1::fpos"* %124, i32 0, i32 1, !dbg !6335
  %128 = load i64, i64* %12, align 8, !dbg !6336
  store i64 %128, i64* %127, align 8, !dbg !6335
  br label %388, !dbg !6337

; <label>:129                                     ; preds = %118, %114
  call void @llvm.dbg.declare(metadata i64* %87, metadata !6338, metadata !3948), !dbg !6339
  %130 = load i32, i32* %85, align 4, !dbg !6340
  switch i32 %130, label %211 [
    i32 0, label %131
    i32 1, label %132
    i32 2, label %161
  ], !dbg !6341

; <label>:131                                     ; preds = %129
  store i64 0, i64* %87, align 8, !dbg !6342
  br label %219, !dbg !6343

; <label>:132                                     ; preds = %129
  %133 = load i32, i32* %86, align 4, !dbg !6344
  %134 = and i32 %133, 8, !dbg !6345
  %135 = icmp ne i32 %134, 0, !dbg !6344
  br i1 %135, label %136, label %148, !dbg !6346

; <label>:136                                     ; preds = %132
  %137 = bitcast %"class.std::__1::basic_stringbuf"* %88 to %"class.std::__1::basic_streambuf"*, !dbg !6347
  store %"class.std::__1::basic_streambuf"* %137, %"class.std::__1::basic_streambuf"** %15, align 8, !dbg !6347
  %138 = load %"class.std::__1::basic_streambuf"*, %"class.std::__1::basic_streambuf"** %15, align 8, !dbg !6347
  %139 = getelementptr inbounds %"class.std::__1::basic_streambuf", %"class.std::__1::basic_streambuf"* %138, i32 0, i32 3, !dbg !6348
  %140 = load i8*, i8** %139, align 8, !dbg !6348
  %141 = bitcast %"class.std::__1::basic_stringbuf"* %88 to %"class.std::__1::basic_streambuf"*, !dbg !6349
  store %"class.std::__1::basic_streambuf"* %141, %"class.std::__1::basic_streambuf"** %16, align 8, !dbg !6349
  %142 = load %"class.std::__1::basic_streambuf"*, %"class.std::__1::basic_streambuf"** %16, align 8, !dbg !6349
  %143 = getelementptr inbounds %"class.std::__1::basic_streambuf", %"class.std::__1::basic_streambuf"* %142, i32 0, i32 2, !dbg !6350
  %144 = load i8*, i8** %143, align 8, !dbg !6350
  %145 = ptrtoint i8* %140 to i64, !dbg !6351
  %146 = ptrtoint i8* %144 to i64, !dbg !6351
  %147 = sub i64 %145, %146, !dbg !6351
  store i64 %147, i64* %87, align 8, !dbg !6352
  br label %160, !dbg !6353

; <label>:148                                     ; preds = %132
  %149 = bitcast %"class.std::__1::basic_stringbuf"* %88 to %"class.std::__1::basic_streambuf"*, !dbg !6354
  store %"class.std::__1::basic_streambuf"* %149, %"class.std::__1::basic_streambuf"** %17, align 8, !dbg !6354
  %150 = load %"class.std::__1::basic_streambuf"*, %"class.std::__1::basic_streambuf"** %17, align 8, !dbg !6354
  %151 = getelementptr inbounds %"class.std::__1::basic_streambuf", %"class.std::__1::basic_streambuf"* %150, i32 0, i32 6, !dbg !6355
  %152 = load i8*, i8** %151, align 8, !dbg !6355
  %153 = bitcast %"class.std::__1::basic_stringbuf"* %88 to %"class.std::__1::basic_streambuf"*, !dbg !6356
  store %"class.std::__1::basic_streambuf"* %153, %"class.std::__1::basic_streambuf"** %18, align 8, !dbg !6356
  %154 = load %"class.std::__1::basic_streambuf"*, %"class.std::__1::basic_streambuf"** %18, align 8, !dbg !6356
  %155 = getelementptr inbounds %"class.std::__1::basic_streambuf", %"class.std::__1::basic_streambuf"* %154, i32 0, i32 5, !dbg !6357
  %156 = load i8*, i8** %155, align 8, !dbg !6357
  %157 = ptrtoint i8* %152 to i64, !dbg !6358
  %158 = ptrtoint i8* %156 to i64, !dbg !6358
  %159 = sub i64 %157, %158, !dbg !6358
  store i64 %159, i64* %87, align 8, !dbg !6359
  br label %160

; <label>:160                                     ; preds = %148, %136
  br label %219, !dbg !6360

; <label>:161                                     ; preds = %129
  %162 = getelementptr inbounds %"class.std::__1::basic_stringbuf", %"class.std::__1::basic_stringbuf"* %88, i32 0, i32 2, !dbg !6361
  %163 = load i8*, i8** %162, align 8, !dbg !6361
  %164 = getelementptr inbounds %"class.std::__1::basic_stringbuf", %"class.std::__1::basic_stringbuf"* %88, i32 0, i32 1, !dbg !6362
  store %"class.std::__1::basic_string"* %164, %"class.std::__1::basic_string"** %32, align 8, !dbg !6362
  %165 = load %"class.std::__1::basic_string"*, %"class.std::__1::basic_string"** %32, align 8, !dbg !6362
  store %"class.std::__1::basic_string"* %165, %"class.std::__1::basic_string"** %31, align 8, !dbg !6363
  %166 = load %"class.std::__1::basic_string"*, %"class.std::__1::basic_string"** %31, align 8, !dbg !6363
  store %"class.std::__1::basic_string"* %166, %"class.std::__1::basic_string"** %30, align 8, !dbg !6364
  %167 = load %"class.std::__1::basic_string"*, %"class.std::__1::basic_string"** %30, align 8, !dbg !6364
  %168 = getelementptr inbounds %"class.std::__1::basic_string", %"class.std::__1::basic_string"* %167, i32 0, i32 0, !dbg !6365
  store %"class.std::__1::__compressed_pair"* %168, %"class.std::__1::__compressed_pair"** %29, align 8, !dbg !6365
  %169 = load %"class.std::__1::__compressed_pair"*, %"class.std::__1::__compressed_pair"** %29, align 8, !dbg !6365
  %170 = bitcast %"class.std::__1::__compressed_pair"* %169 to %"class.std::__1::__libcpp_compressed_pair_imp"*, !dbg !6366
  store %"class.std::__1::__libcpp_compressed_pair_imp"* %170, %"class.std::__1::__libcpp_compressed_pair_imp"** %28, align 8, !dbg !6366
  %171 = load %"class.std::__1::__libcpp_compressed_pair_imp"*, %"class.std::__1::__libcpp_compressed_pair_imp"** %28, align 8, !dbg !6366
  %172 = getelementptr inbounds %"class.std::__1::__libcpp_compressed_pair_imp", %"class.std::__1::__libcpp_compressed_pair_imp"* %171, i32 0, i32 0, !dbg !6367
  %173 = getelementptr inbounds %"struct.std::__1::basic_string<char, std::__1::char_traits<char>, std::__1::allocator<char> >::__rep", %"struct.std::__1::basic_string<char, std::__1::char_traits<char>, std::__1::allocator<char> >::__rep"* %172, i32 0, i32 0, !dbg !6368
  %174 = bitcast %union.anon* %173 to %"struct.std::__1::basic_string<char, std::__1::char_traits<char>, std::__1::allocator<char> >::__short"*, !dbg !6368
  %175 = getelementptr inbounds %"struct.std::__1::basic_string<char, std::__1::char_traits<char>, std::__1::allocator<char> >::__short", %"struct.std::__1::basic_string<char, std::__1::char_traits<char>, std::__1::allocator<char> >::__short"* %174, i32 0, i32 0, !dbg !6369
  %176 = bitcast %union.anon.0* %175 to i8*, !dbg !6369
  %177 = load i8, i8* %176, align 8, !dbg !6369
  %178 = zext i8 %177 to i32, !dbg !6365
  %179 = and i32 %178, 1, !dbg !6370
  %180 = icmp ne i32 %179, 0, !dbg !6365
  br i1 %180, label %181, label %192, !dbg !6364

; <label>:181                                     ; preds = %161
  store %"class.std::__1::basic_string"* %166, %"class.std::__1::basic_string"** %22, align 8, !dbg !6371
  %182 = load %"class.std::__1::basic_string"*, %"class.std::__1::basic_string"** %22, align 8, !dbg !6371
  %183 = getelementptr inbounds %"class.std::__1::basic_string", %"class.std::__1::basic_string"* %182, i32 0, i32 0, !dbg !6372
  store %"class.std::__1::__compressed_pair"* %183, %"class.std::__1::__compressed_pair"** %21, align 8, !dbg !6372
  %184 = load %"class.std::__1::__compressed_pair"*, %"class.std::__1::__compressed_pair"** %21, align 8, !dbg !6372
  %185 = bitcast %"class.std::__1::__compressed_pair"* %184 to %"class.std::__1::__libcpp_compressed_pair_imp"*, !dbg !6373
  store %"class.std::__1::__libcpp_compressed_pair_imp"* %185, %"class.std::__1::__libcpp_compressed_pair_imp"** %20, align 8, !dbg !6373
  %186 = load %"class.std::__1::__libcpp_compressed_pair_imp"*, %"class.std::__1::__libcpp_compressed_pair_imp"** %20, align 8, !dbg !6373
  %187 = getelementptr inbounds %"class.std::__1::__libcpp_compressed_pair_imp", %"class.std::__1::__libcpp_compressed_pair_imp"* %186, i32 0, i32 0, !dbg !6374
  %188 = getelementptr inbounds %"struct.std::__1::basic_string<char, std::__1::char_traits<char>, std::__1::allocator<char> >::__rep", %"struct.std::__1::basic_string<char, std::__1::char_traits<char>, std::__1::allocator<char> >::__rep"* %187, i32 0, i32 0, !dbg !6375
  %189 = bitcast %union.anon* %188 to %"struct.std::__1::basic_string<char, std::__1::char_traits<char>, std::__1::allocator<char> >::__long"*, !dbg !6375
  %190 = getelementptr inbounds %"struct.std::__1::basic_string<char, std::__1::char_traits<char>, std::__1::allocator<char> >::__long", %"struct.std::__1::basic_string<char, std::__1::char_traits<char>, std::__1::allocator<char> >::__long"* %189, i32 0, i32 2, !dbg !6376
  %191 = load i8*, i8** %190, align 8, !dbg !6376
  br label %205, !dbg !6364

; <label>:192                                     ; preds = %161
  store %"class.std::__1::basic_string"* %166, %"class.std::__1::basic_string"** %27, align 8, !dbg !6377
  %193 = load %"class.std::__1::basic_string"*, %"class.std::__1::basic_string"** %27, align 8, !dbg !6377
  %194 = getelementptr inbounds %"class.std::__1::basic_string", %"class.std::__1::basic_string"* %193, i32 0, i32 0, !dbg !6378
  store %"class.std::__1::__compressed_pair"* %194, %"class.std::__1::__compressed_pair"** %26, align 8, !dbg !6378
  %195 = load %"class.std::__1::__compressed_pair"*, %"class.std::__1::__compressed_pair"** %26, align 8, !dbg !6378
  %196 = bitcast %"class.std::__1::__compressed_pair"* %195 to %"class.std::__1::__libcpp_compressed_pair_imp"*, !dbg !6379
  store %"class.std::__1::__libcpp_compressed_pair_imp"* %196, %"class.std::__1::__libcpp_compressed_pair_imp"** %25, align 8, !dbg !6379
  %197 = load %"class.std::__1::__libcpp_compressed_pair_imp"*, %"class.std::__1::__libcpp_compressed_pair_imp"** %25, align 8, !dbg !6379
  %198 = getelementptr inbounds %"class.std::__1::__libcpp_compressed_pair_imp", %"class.std::__1::__libcpp_compressed_pair_imp"* %197, i32 0, i32 0, !dbg !6380
  %199 = getelementptr inbounds %"struct.std::__1::basic_string<char, std::__1::char_traits<char>, std::__1::allocator<char> >::__rep", %"struct.std::__1::basic_string<char, std::__1::char_traits<char>, std::__1::allocator<char> >::__rep"* %198, i32 0, i32 0, !dbg !6381
  %200 = bitcast %union.anon* %199 to %"struct.std::__1::basic_string<char, std::__1::char_traits<char>, std::__1::allocator<char> >::__short"*, !dbg !6381
  %201 = getelementptr inbounds %"struct.std::__1::basic_string<char, std::__1::char_traits<char>, std::__1::allocator<char> >::__short", %"struct.std::__1::basic_string<char, std::__1::char_traits<char>, std::__1::allocator<char> >::__short"* %200, i32 0, i32 1, !dbg !6382
  %202 = getelementptr inbounds [23 x i8], [23 x i8]* %201, i64 0, i64 0, !dbg !6378
  store i8* %202, i8** %24, align 8, !dbg !6383
  %203 = load i8*, i8** %24, align 8, !dbg !6384
  store i8* %203, i8** %23, align 8, !dbg !6385
  %204 = load i8*, i8** %23, align 8, !dbg !6386
  br label %205, !dbg !6364

; <label>:205                                     ; preds = %181, %192
  %206 = phi i8* [ %191, %181 ], [ %204, %192 ], !dbg !6364
  store i8* %206, i8** %19, align 8, !dbg !6387
  %207 = load i8*, i8** %19, align 8, !dbg !6388
  %208 = ptrtoint i8* %163 to i64, !dbg !6389
  %209 = ptrtoint i8* %207 to i64, !dbg !6389
  %210 = sub i64 %208, %209, !dbg !6389
  store i64 %210, i64* %87, align 8, !dbg !6390
  br label %219, !dbg !6391

; <label>:211                                     ; preds = %129
  store %"class.std::__1::fpos"* %0, %"class.std::__1::fpos"** %35, align 8, !dbg !6392
  store i64 -1, i64* %36, align 8, !dbg !6392
  %212 = load %"class.std::__1::fpos"*, %"class.std::__1::fpos"** %35, align 8, !dbg !6392
  %213 = load i64, i64* %36, align 8, !dbg !6393
  store %"class.std::__1::fpos"* %212, %"class.std::__1::fpos"** %33, align 8, !dbg !6393
  store i64 %213, i64* %34, align 8, !dbg !6393
  %214 = load %"class.std::__1::fpos"*, %"class.std::__1::fpos"** %33, align 8, !dbg !6393
  %215 = getelementptr inbounds %"class.std::__1::fpos", %"class.std::__1::fpos"* %214, i32 0, i32 0, !dbg !6394
  %216 = bitcast %union.__mbstate_t* %215 to i8*, !dbg !6394
  call void @llvm.memset.p0i8.i64(i8* %216, i8 0, i64 128, i32 8, i1 false) #10, !dbg !6394
  %217 = getelementptr inbounds %"class.std::__1::fpos", %"class.std::__1::fpos"* %214, i32 0, i32 1, !dbg !6395
  %218 = load i64, i64* %34, align 8, !dbg !6396
  store i64 %218, i64* %217, align 8, !dbg !6395
  br label %388, !dbg !6397

; <label>:219                                     ; preds = %205, %160, %131
  %220 = load i64, i64* %84, align 8, !dbg !6398
  %221 = load i64, i64* %87, align 8, !dbg !6399
  %222 = add nsw i64 %221, %220, !dbg !6399
  store i64 %222, i64* %87, align 8, !dbg !6399
  %223 = load i64, i64* %87, align 8, !dbg !6400
  %224 = icmp slt i64 %223, 0, !dbg !6401
  br i1 %224, label %277, label %225, !dbg !6402

; <label>:225                                     ; preds = %219
  %226 = getelementptr inbounds %"class.std::__1::basic_stringbuf", %"class.std::__1::basic_stringbuf"* %88, i32 0, i32 2, !dbg !6403
  %227 = load i8*, i8** %226, align 8, !dbg !6403
  %228 = getelementptr inbounds %"class.std::__1::basic_stringbuf", %"class.std::__1::basic_stringbuf"* %88, i32 0, i32 1, !dbg !6404
  store %"class.std::__1::basic_string"* %228, %"class.std::__1::basic_string"** %50, align 8, !dbg !6404
  %229 = load %"class.std::__1::basic_string"*, %"class.std::__1::basic_string"** %50, align 8, !dbg !6404
  store %"class.std::__1::basic_string"* %229, %"class.std::__1::basic_string"** %49, align 8, !dbg !6405
  %230 = load %"class.std::__1::basic_string"*, %"class.std::__1::basic_string"** %49, align 8, !dbg !6405
  store %"class.std::__1::basic_string"* %230, %"class.std::__1::basic_string"** %48, align 8, !dbg !6406
  %231 = load %"class.std::__1::basic_string"*, %"class.std::__1::basic_string"** %48, align 8, !dbg !6406
  %232 = getelementptr inbounds %"class.std::__1::basic_string", %"class.std::__1::basic_string"* %231, i32 0, i32 0, !dbg !6407
  store %"class.std::__1::__compressed_pair"* %232, %"class.std::__1::__compressed_pair"** %47, align 8, !dbg !6407
  %233 = load %"class.std::__1::__compressed_pair"*, %"class.std::__1::__compressed_pair"** %47, align 8, !dbg !6407
  %234 = bitcast %"class.std::__1::__compressed_pair"* %233 to %"class.std::__1::__libcpp_compressed_pair_imp"*, !dbg !6408
  store %"class.std::__1::__libcpp_compressed_pair_imp"* %234, %"class.std::__1::__libcpp_compressed_pair_imp"** %46, align 8, !dbg !6408
  %235 = load %"class.std::__1::__libcpp_compressed_pair_imp"*, %"class.std::__1::__libcpp_compressed_pair_imp"** %46, align 8, !dbg !6408
  %236 = getelementptr inbounds %"class.std::__1::__libcpp_compressed_pair_imp", %"class.std::__1::__libcpp_compressed_pair_imp"* %235, i32 0, i32 0, !dbg !6409
  %237 = getelementptr inbounds %"struct.std::__1::basic_string<char, std::__1::char_traits<char>, std::__1::allocator<char> >::__rep", %"struct.std::__1::basic_string<char, std::__1::char_traits<char>, std::__1::allocator<char> >::__rep"* %236, i32 0, i32 0, !dbg !6410
  %238 = bitcast %union.anon* %237 to %"struct.std::__1::basic_string<char, std::__1::char_traits<char>, std::__1::allocator<char> >::__short"*, !dbg !6410
  %239 = getelementptr inbounds %"struct.std::__1::basic_string<char, std::__1::char_traits<char>, std::__1::allocator<char> >::__short", %"struct.std::__1::basic_string<char, std::__1::char_traits<char>, std::__1::allocator<char> >::__short"* %238, i32 0, i32 0, !dbg !6411
  %240 = bitcast %union.anon.0* %239 to i8*, !dbg !6411
  %241 = load i8, i8* %240, align 8, !dbg !6411
  %242 = zext i8 %241 to i32, !dbg !6407
  %243 = and i32 %242, 1, !dbg !6412
  %244 = icmp ne i32 %243, 0, !dbg !6407
  br i1 %244, label %245, label %256, !dbg !6406

; <label>:245                                     ; preds = %225
  store %"class.std::__1::basic_string"* %230, %"class.std::__1::basic_string"** %40, align 8, !dbg !6413
  %246 = load %"class.std::__1::basic_string"*, %"class.std::__1::basic_string"** %40, align 8, !dbg !6413
  %247 = getelementptr inbounds %"class.std::__1::basic_string", %"class.std::__1::basic_string"* %246, i32 0, i32 0, !dbg !6414
  store %"class.std::__1::__compressed_pair"* %247, %"class.std::__1::__compressed_pair"** %39, align 8, !dbg !6414
  %248 = load %"class.std::__1::__compressed_pair"*, %"class.std::__1::__compressed_pair"** %39, align 8, !dbg !6414
  %249 = bitcast %"class.std::__1::__compressed_pair"* %248 to %"class.std::__1::__libcpp_compressed_pair_imp"*, !dbg !6415
  store %"class.std::__1::__libcpp_compressed_pair_imp"* %249, %"class.std::__1::__libcpp_compressed_pair_imp"** %38, align 8, !dbg !6415
  %250 = load %"class.std::__1::__libcpp_compressed_pair_imp"*, %"class.std::__1::__libcpp_compressed_pair_imp"** %38, align 8, !dbg !6415
  %251 = getelementptr inbounds %"class.std::__1::__libcpp_compressed_pair_imp", %"class.std::__1::__libcpp_compressed_pair_imp"* %250, i32 0, i32 0, !dbg !6416
  %252 = getelementptr inbounds %"struct.std::__1::basic_string<char, std::__1::char_traits<char>, std::__1::allocator<char> >::__rep", %"struct.std::__1::basic_string<char, std::__1::char_traits<char>, std::__1::allocator<char> >::__rep"* %251, i32 0, i32 0, !dbg !6417
  %253 = bitcast %union.anon* %252 to %"struct.std::__1::basic_string<char, std::__1::char_traits<char>, std::__1::allocator<char> >::__long"*, !dbg !6417
  %254 = getelementptr inbounds %"struct.std::__1::basic_string<char, std::__1::char_traits<char>, std::__1::allocator<char> >::__long", %"struct.std::__1::basic_string<char, std::__1::char_traits<char>, std::__1::allocator<char> >::__long"* %253, i32 0, i32 2, !dbg !6418
  %255 = load i8*, i8** %254, align 8, !dbg !6418
  br label %269, !dbg !6406

; <label>:256                                     ; preds = %225
  store %"class.std::__1::basic_string"* %230, %"class.std::__1::basic_string"** %45, align 8, !dbg !6419
  %257 = load %"class.std::__1::basic_string"*, %"class.std::__1::basic_string"** %45, align 8, !dbg !6419
  %258 = getelementptr inbounds %"class.std::__1::basic_string", %"class.std::__1::basic_string"* %257, i32 0, i32 0, !dbg !6420
  store %"class.std::__1::__compressed_pair"* %258, %"class.std::__1::__compressed_pair"** %44, align 8, !dbg !6420
  %259 = load %"class.std::__1::__compressed_pair"*, %"class.std::__1::__compressed_pair"** %44, align 8, !dbg !6420
  %260 = bitcast %"class.std::__1::__compressed_pair"* %259 to %"class.std::__1::__libcpp_compressed_pair_imp"*, !dbg !6421
  store %"class.std::__1::__libcpp_compressed_pair_imp"* %260, %"class.std::__1::__libcpp_compressed_pair_imp"** %43, align 8, !dbg !6421
  %261 = load %"class.std::__1::__libcpp_compressed_pair_imp"*, %"class.std::__1::__libcpp_compressed_pair_imp"** %43, align 8, !dbg !6421
  %262 = getelementptr inbounds %"class.std::__1::__libcpp_compressed_pair_imp", %"class.std::__1::__libcpp_compressed_pair_imp"* %261, i32 0, i32 0, !dbg !6422
  %263 = getelementptr inbounds %"struct.std::__1::basic_string<char, std::__1::char_traits<char>, std::__1::allocator<char> >::__rep", %"struct.std::__1::basic_string<char, std::__1::char_traits<char>, std::__1::allocator<char> >::__rep"* %262, i32 0, i32 0, !dbg !6423
  %264 = bitcast %union.anon* %263 to %"struct.std::__1::basic_string<char, std::__1::char_traits<char>, std::__1::allocator<char> >::__short"*, !dbg !6423
  %265 = getelementptr inbounds %"struct.std::__1::basic_string<char, std::__1::char_traits<char>, std::__1::allocator<char> >::__short", %"struct.std::__1::basic_string<char, std::__1::char_traits<char>, std::__1::allocator<char> >::__short"* %264, i32 0, i32 1, !dbg !6424
  %266 = getelementptr inbounds [23 x i8], [23 x i8]* %265, i64 0, i64 0, !dbg !6420
  store i8* %266, i8** %42, align 8, !dbg !6425
  %267 = load i8*, i8** %42, align 8, !dbg !6426
  store i8* %267, i8** %41, align 8, !dbg !6427
  %268 = load i8*, i8** %41, align 8, !dbg !6428
  br label %269, !dbg !6406

; <label>:269                                     ; preds = %245, %256
  %270 = phi i8* [ %255, %245 ], [ %268, %256 ], !dbg !6406
  store i8* %270, i8** %37, align 8, !dbg !6429
  %271 = load i8*, i8** %37, align 8, !dbg !6430
  %272 = ptrtoint i8* %227 to i64, !dbg !6431
  %273 = ptrtoint i8* %271 to i64, !dbg !6431
  %274 = sub i64 %272, %273, !dbg !6431
  %275 = load i64, i64* %87, align 8, !dbg !6432
  %276 = icmp slt i64 %274, %275, !dbg !6433
  br i1 %276, label %277, label %285, !dbg !6434

; <label>:277                                     ; preds = %269, %219
  store %"class.std::__1::fpos"* %0, %"class.std::__1::fpos"** %53, align 8, !dbg !6435
  store i64 -1, i64* %54, align 8, !dbg !6435
  %278 = load %"class.std::__1::fpos"*, %"class.std::__1::fpos"** %53, align 8, !dbg !6435
  %279 = load i64, i64* %54, align 8, !dbg !6436
  store %"class.std::__1::fpos"* %278, %"class.std::__1::fpos"** %51, align 8, !dbg !6436
  store i64 %279, i64* %52, align 8, !dbg !6436
  %280 = load %"class.std::__1::fpos"*, %"class.std::__1::fpos"** %51, align 8, !dbg !6436
  %281 = getelementptr inbounds %"class.std::__1::fpos", %"class.std::__1::fpos"* %280, i32 0, i32 0, !dbg !6437
  %282 = bitcast %union.__mbstate_t* %281 to i8*, !dbg !6437
  call void @llvm.memset.p0i8.i64(i8* %282, i8 0, i64 128, i32 8, i1 false) #10, !dbg !6437
  %283 = getelementptr inbounds %"class.std::__1::fpos", %"class.std::__1::fpos"* %280, i32 0, i32 1, !dbg !6438
  %284 = load i64, i64* %52, align 8, !dbg !6439
  store i64 %284, i64* %283, align 8, !dbg !6438
  br label %388, !dbg !6440

; <label>:285                                     ; preds = %269
  %286 = load i64, i64* %87, align 8, !dbg !6441
  %287 = icmp ne i64 %286, 0, !dbg !6442
  br i1 %287, label %288, label %325, !dbg !6443

; <label>:288                                     ; preds = %285
  %289 = load i32, i32* %86, align 4, !dbg !6444
  %290 = and i32 %289, 8, !dbg !6445
  %291 = icmp ne i32 %290, 0, !dbg !6446
  br i1 %291, label %292, label %306, !dbg !6447

; <label>:292                                     ; preds = %288
  %293 = bitcast %"class.std::__1::basic_stringbuf"* %88 to %"class.std::__1::basic_streambuf"*, !dbg !6448
  store %"class.std::__1::basic_streambuf"* %293, %"class.std::__1::basic_streambuf"** %55, align 8, !dbg !6448
  %294 = load %"class.std::__1::basic_streambuf"*, %"class.std::__1::basic_streambuf"** %55, align 8, !dbg !6448
  %295 = getelementptr inbounds %"class.std::__1::basic_streambuf", %"class.std::__1::basic_streambuf"* %294, i32 0, i32 3, !dbg !6449
  %296 = load i8*, i8** %295, align 8, !dbg !6449
  %297 = icmp eq i8* %296, null, !dbg !6450
  br i1 %297, label %298, label %306, !dbg !6451

; <label>:298                                     ; preds = %292
  store %"class.std::__1::fpos"* %0, %"class.std::__1::fpos"** %58, align 8, !dbg !6452
  store i64 -1, i64* %59, align 8, !dbg !6452
  %299 = load %"class.std::__1::fpos"*, %"class.std::__1::fpos"** %58, align 8, !dbg !6452
  %300 = load i64, i64* %59, align 8, !dbg !6453
  store %"class.std::__1::fpos"* %299, %"class.std::__1::fpos"** %56, align 8, !dbg !6453
  store i64 %300, i64* %57, align 8, !dbg !6453
  %301 = load %"class.std::__1::fpos"*, %"class.std::__1::fpos"** %56, align 8, !dbg !6453
  %302 = getelementptr inbounds %"class.std::__1::fpos", %"class.std::__1::fpos"* %301, i32 0, i32 0, !dbg !6454
  %303 = bitcast %union.__mbstate_t* %302 to i8*, !dbg !6454
  call void @llvm.memset.p0i8.i64(i8* %303, i8 0, i64 128, i32 8, i1 false) #10, !dbg !6454
  %304 = getelementptr inbounds %"class.std::__1::fpos", %"class.std::__1::fpos"* %301, i32 0, i32 1, !dbg !6455
  %305 = load i64, i64* %57, align 8, !dbg !6456
  store i64 %305, i64* %304, align 8, !dbg !6455
  br label %388, !dbg !6457

; <label>:306                                     ; preds = %292, %288
  %307 = load i32, i32* %86, align 4, !dbg !6458
  %308 = and i32 %307, 16, !dbg !6459
  %309 = icmp ne i32 %308, 0, !dbg !6460
  br i1 %309, label %310, label %324, !dbg !6461

; <label>:310                                     ; preds = %306
  %311 = bitcast %"class.std::__1::basic_stringbuf"* %88 to %"class.std::__1::basic_streambuf"*, !dbg !6462
  store %"class.std::__1::basic_streambuf"* %311, %"class.std::__1::basic_streambuf"** %60, align 8, !dbg !6462
  %312 = load %"class.std::__1::basic_streambuf"*, %"class.std::__1::basic_streambuf"** %60, align 8, !dbg !6462
  %313 = getelementptr inbounds %"class.std::__1::basic_streambuf", %"class.std::__1::basic_streambuf"* %312, i32 0, i32 6, !dbg !6463
  %314 = load i8*, i8** %313, align 8, !dbg !6463
  %315 = icmp eq i8* %314, null, !dbg !6464
  br i1 %315, label %316, label %324, !dbg !6465

; <label>:316                                     ; preds = %310
  store %"class.std::__1::fpos"* %0, %"class.std::__1::fpos"** %63, align 8, !dbg !6466
  store i64 -1, i64* %64, align 8, !dbg !6466
  %317 = load %"class.std::__1::fpos"*, %"class.std::__1::fpos"** %63, align 8, !dbg !6466
  %318 = load i64, i64* %64, align 8, !dbg !6467
  store %"class.std::__1::fpos"* %317, %"class.std::__1::fpos"** %61, align 8, !dbg !6467
  store i64 %318, i64* %62, align 8, !dbg !6467
  %319 = load %"class.std::__1::fpos"*, %"class.std::__1::fpos"** %61, align 8, !dbg !6467
  %320 = getelementptr inbounds %"class.std::__1::fpos", %"class.std::__1::fpos"* %319, i32 0, i32 0, !dbg !6468
  %321 = bitcast %union.__mbstate_t* %320 to i8*, !dbg !6468
  call void @llvm.memset.p0i8.i64(i8* %321, i8 0, i64 128, i32 8, i1 false) #10, !dbg !6468
  %322 = getelementptr inbounds %"class.std::__1::fpos", %"class.std::__1::fpos"* %319, i32 0, i32 1, !dbg !6469
  %323 = load i64, i64* %62, align 8, !dbg !6470
  store i64 %323, i64* %322, align 8, !dbg !6469
  br label %388, !dbg !6471

; <label>:324                                     ; preds = %310, %306
  br label %325, !dbg !6472

; <label>:325                                     ; preds = %324, %285
  %326 = load i32, i32* %86, align 4, !dbg !6473
  %327 = and i32 %326, 8, !dbg !6474
  %328 = icmp ne i32 %327, 0, !dbg !6473
  br i1 %328, label %329, label %350, !dbg !6475

; <label>:329                                     ; preds = %325
  %330 = bitcast %"class.std::__1::basic_stringbuf"* %88 to %"class.std::__1::basic_streambuf"*, !dbg !6476
  %331 = bitcast %"class.std::__1::basic_stringbuf"* %88 to %"class.std::__1::basic_streambuf"*, !dbg !6477
  store %"class.std::__1::basic_streambuf"* %331, %"class.std::__1::basic_streambuf"** %65, align 8, !dbg !6477
  %332 = load %"class.std::__1::basic_streambuf"*, %"class.std::__1::basic_streambuf"** %65, align 8, !dbg !6477
  %333 = getelementptr inbounds %"class.std::__1::basic_streambuf", %"class.std::__1::basic_streambuf"* %332, i32 0, i32 2, !dbg !6478
  %334 = load i8*, i8** %333, align 8, !dbg !6478
  %335 = bitcast %"class.std::__1::basic_stringbuf"* %88 to %"class.std::__1::basic_streambuf"*, !dbg !6479
  store %"class.std::__1::basic_streambuf"* %335, %"class.std::__1::basic_streambuf"** %66, align 8, !dbg !6479
  %336 = load %"class.std::__1::basic_streambuf"*, %"class.std::__1::basic_streambuf"** %66, align 8, !dbg !6479
  %337 = getelementptr inbounds %"class.std::__1::basic_streambuf", %"class.std::__1::basic_streambuf"* %336, i32 0, i32 2, !dbg !6480
  %338 = load i8*, i8** %337, align 8, !dbg !6480
  %339 = load i64, i64* %87, align 8, !dbg !6481
  %340 = getelementptr inbounds i8, i8* %338, i64 %339, !dbg !6482
  %341 = getelementptr inbounds %"class.std::__1::basic_stringbuf", %"class.std::__1::basic_stringbuf"* %88, i32 0, i32 2, !dbg !6483
  %342 = load i8*, i8** %341, align 8, !dbg !6483
  store %"class.std::__1::basic_streambuf"* %330, %"class.std::__1::basic_streambuf"** %67, align 8, !dbg !6476
  store i8* %334, i8** %68, align 8, !dbg !6476
  store i8* %340, i8** %69, align 8, !dbg !6476
  store i8* %342, i8** %70, align 8, !dbg !6476
  %343 = load %"class.std::__1::basic_streambuf"*, %"class.std::__1::basic_streambuf"** %67, align 8, !dbg !6476
  %344 = load i8*, i8** %68, align 8, !dbg !6484
  %345 = getelementptr inbounds %"class.std::__1::basic_streambuf", %"class.std::__1::basic_streambuf"* %343, i32 0, i32 2, !dbg !6485
  store i8* %344, i8** %345, align 8, !dbg !6486
  %346 = load i8*, i8** %69, align 8, !dbg !6487
  %347 = getelementptr inbounds %"class.std::__1::basic_streambuf", %"class.std::__1::basic_streambuf"* %343, i32 0, i32 3, !dbg !6488
  store i8* %346, i8** %347, align 8, !dbg !6489
  %348 = load i8*, i8** %70, align 8, !dbg !6490
  %349 = getelementptr inbounds %"class.std::__1::basic_streambuf", %"class.std::__1::basic_streambuf"* %343, i32 0, i32 4, !dbg !6491
  store i8* %348, i8** %349, align 8, !dbg !6492
  br label %350, !dbg !6476

; <label>:350                                     ; preds = %329, %325
  %351 = load i32, i32* %86, align 4, !dbg !6493
  %352 = and i32 %351, 16, !dbg !6494
  %353 = icmp ne i32 %352, 0, !dbg !6493
  br i1 %353, label %354, label %379, !dbg !6495

; <label>:354                                     ; preds = %350
  %355 = bitcast %"class.std::__1::basic_stringbuf"* %88 to %"class.std::__1::basic_streambuf"*, !dbg !6496
  %356 = bitcast %"class.std::__1::basic_stringbuf"* %88 to %"class.std::__1::basic_streambuf"*, !dbg !6497
  store %"class.std::__1::basic_streambuf"* %356, %"class.std::__1::basic_streambuf"** %71, align 8, !dbg !6497
