; ModuleID = 'test_and_or_operators.cpp'
source_filename = "test_and_or_operators.cpp"
target datalayout = "e-m:o-i64:64-f80:128-n8:16:32:64-S128"
target triple = "x86_64-apple-macosx10.12.0"

%"class.std::__1::__libcpp_compressed_pair_imp" = type { %"struct.std::__1::basic_string<char, std::__1::char_traits<char>, std::__1::allocator<char> >::__rep" }
%"struct.std::__1::basic_string<char, std::__1::char_traits<char>, std::__1::allocator<char> >::__rep" = type { %union.anon }
%union.anon = type { %"struct.std::__1::basic_string<char, std::__1::char_traits<char>, std::__1::allocator<char> >::__long" }
%"struct.std::__1::basic_string<char, std::__1::char_traits<char>, std::__1::allocator<char> >::__long" = type { i64, i64, i8* }
%"class.std::__1::__compressed_pair" = type { %"class.std::__1::__libcpp_compressed_pair_imp" }
%"class.std::__1::basic_string" = type { %"class.std::__1::__compressed_pair" }
%"struct.std::__1::pair" = type { i8*, i8* }
%"class.std::__1::allocator" = type { i8 }
%"class.std::__1::__basic_string_common" = type { i8 }
%"struct.std::__1::basic_string<char, std::__1::char_traits<char>, std::__1::allocator<char> >::__short" = type { %union.anon.0, [23 x i8] }
%union.anon.0 = type { i8 }
%"struct.std::__1::random_access_iterator_tag" = type { i8 }

@.str = private unnamed_addr constant [5 x i8] c"STR1\00", align 1
@.str.1 = private unnamed_addr constant [5 x i8] c"STR2\00", align 1
@.str.2 = private unnamed_addr constant [13 x i8] c"left branch\0A\00", align 1
@.str.3 = private unnamed_addr constant [14 x i8] c"right branch\0A\00", align 1

; Function Attrs: ssp uwtable
define zeroext i1 @_Z27testee_OR_operator_with_CPPv() #0 personality i8* bitcast (i32 (...)* @__gxx_personality_v0 to i8*) !dbg !1422 {
  %1 = alloca %"class.std::__1::__libcpp_compressed_pair_imp"*, align 8
  call void @llvm.dbg.declare(metadata %"class.std::__1::__libcpp_compressed_pair_imp"** %1, metadata !1425, metadata !1428), !dbg !1429
  %2 = alloca %"class.std::__1::__compressed_pair"*, align 8
  call void @llvm.dbg.declare(metadata %"class.std::__1::__compressed_pair"** %2, metadata !1440, metadata !1428), !dbg !1442
  %3 = alloca %"class.std::__1::basic_string"*, align 8
  call void @llvm.dbg.declare(metadata %"class.std::__1::basic_string"** %3, metadata !1443, metadata !1428), !dbg !1445
  %4 = alloca %"class.std::__1::__libcpp_compressed_pair_imp"*, align 8
  call void @llvm.dbg.declare(metadata %"class.std::__1::__libcpp_compressed_pair_imp"** %4, metadata !1425, metadata !1428), !dbg !1446
  %5 = alloca %"class.std::__1::__compressed_pair"*, align 8
  call void @llvm.dbg.declare(metadata %"class.std::__1::__compressed_pair"** %5, metadata !1440, metadata !1428), !dbg !1451
  %6 = alloca %"class.std::__1::basic_string"*, align 8
  call void @llvm.dbg.declare(metadata %"class.std::__1::basic_string"** %6, metadata !1452, metadata !1428), !dbg !1453
  %7 = alloca %"class.std::__1::__libcpp_compressed_pair_imp"*, align 8
  call void @llvm.dbg.declare(metadata %"class.std::__1::__libcpp_compressed_pair_imp"** %7, metadata !1425, metadata !1428), !dbg !1454
  %8 = alloca %"class.std::__1::__compressed_pair"*, align 8
  call void @llvm.dbg.declare(metadata %"class.std::__1::__compressed_pair"** %8, metadata !1440, metadata !1428), !dbg !1459
  %9 = alloca %"class.std::__1::basic_string"*, align 8
  call void @llvm.dbg.declare(metadata %"class.std::__1::basic_string"** %9, metadata !1460, metadata !1428), !dbg !1461
  %10 = alloca %"class.std::__1::basic_string"*, align 8
  call void @llvm.dbg.declare(metadata %"class.std::__1::basic_string"** %10, metadata !1462, metadata !1428), !dbg !1463
  %11 = alloca i64, align 8
  %12 = alloca i8*, align 8
  call void @llvm.dbg.declare(metadata i8** %12, metadata !1464, metadata !1428), !dbg !1471
  %13 = alloca i64, align 8
  call void @llvm.dbg.declare(metadata i64* %13, metadata !1473, metadata !1428), !dbg !1474
  %14 = alloca i8*, align 8
  call void @llvm.dbg.declare(metadata i8** %14, metadata !1475, metadata !1428), !dbg !1476
  %15 = alloca i64, align 8
  call void @llvm.dbg.declare(metadata i64* %15, metadata !1477, metadata !1428), !dbg !1478
  %16 = alloca i64, align 8
  call void @llvm.dbg.declare(metadata i64* %16, metadata !1479, metadata !1428), !dbg !1480
  %17 = alloca i8*, align 8
  call void @llvm.dbg.declare(metadata i8** %17, metadata !1481, metadata !1428), !dbg !1482
  %18 = alloca i8*
  %19 = alloca i32
  %20 = alloca %"struct.std::__1::pair", align 8
  %21 = alloca i8*, align 8
  call void @llvm.dbg.declare(metadata i8** %21, metadata !1483, metadata !1428), !dbg !1489
  %22 = alloca %"class.std::__1::__libcpp_compressed_pair_imp"*, align 8
  call void @llvm.dbg.declare(metadata %"class.std::__1::__libcpp_compressed_pair_imp"** %22, metadata !1425, metadata !1428), !dbg !1493
  %23 = alloca %"class.std::__1::__compressed_pair"*, align 8
  call void @llvm.dbg.declare(metadata %"class.std::__1::__compressed_pair"** %23, metadata !1440, metadata !1428), !dbg !1500
  %24 = alloca %"class.std::__1::basic_string"*, align 8
  call void @llvm.dbg.declare(metadata %"class.std::__1::basic_string"** %24, metadata !1501, metadata !1428), !dbg !1502
  %25 = alloca i8*, align 8
  call void @llvm.dbg.declare(metadata i8** %25, metadata !1503, metadata !1428), !dbg !1507
  %26 = alloca i8*, align 8
  call void @llvm.dbg.declare(metadata i8** %26, metadata !1528, metadata !1428), !dbg !1529
  %27 = alloca %"class.std::__1::__libcpp_compressed_pair_imp"*, align 8
  call void @llvm.dbg.declare(metadata %"class.std::__1::__libcpp_compressed_pair_imp"** %27, metadata !1425, metadata !1428), !dbg !1530
  %28 = alloca %"class.std::__1::__compressed_pair"*, align 8
  call void @llvm.dbg.declare(metadata %"class.std::__1::__compressed_pair"** %28, metadata !1440, metadata !1428), !dbg !1533
  %29 = alloca %"class.std::__1::basic_string"*, align 8
  call void @llvm.dbg.declare(metadata %"class.std::__1::basic_string"** %29, metadata !1534, metadata !1428), !dbg !1535
  %30 = alloca %"class.std::__1::__libcpp_compressed_pair_imp"*, align 8
  call void @llvm.dbg.declare(metadata %"class.std::__1::__libcpp_compressed_pair_imp"** %30, metadata !1425, metadata !1428), !dbg !1536
  %31 = alloca %"class.std::__1::__compressed_pair"*, align 8
  call void @llvm.dbg.declare(metadata %"class.std::__1::__compressed_pair"** %31, metadata !1440, metadata !1428), !dbg !1540
  %32 = alloca %"class.std::__1::basic_string"*, align 8
  call void @llvm.dbg.declare(metadata %"class.std::__1::basic_string"** %32, metadata !1460, metadata !1428), !dbg !1541
  %33 = alloca %"class.std::__1::basic_string"*, align 8
  call void @llvm.dbg.declare(metadata %"class.std::__1::basic_string"** %33, metadata !1542, metadata !1428), !dbg !1543
  %34 = alloca %"class.std::__1::basic_string"*, align 8
  call void @llvm.dbg.declare(metadata %"class.std::__1::basic_string"** %34, metadata !1544, metadata !1428), !dbg !1545
  %35 = alloca %"class.std::__1::basic_string"*, align 8
  call void @llvm.dbg.declare(metadata %"class.std::__1::basic_string"** %35, metadata !1546, metadata !1428), !dbg !1547
  %36 = alloca i8*, align 8
  call void @llvm.dbg.declare(metadata i8** %36, metadata !1548, metadata !1428), !dbg !1549
  %37 = alloca i64, align 8
  call void @llvm.dbg.declare(metadata i64* %37, metadata !1550, metadata !1428), !dbg !1551
  %38 = alloca i8*
  %39 = alloca i32
  %40 = alloca %"class.std::__1::__libcpp_compressed_pair_imp"*, align 8
  call void @llvm.dbg.declare(metadata %"class.std::__1::__libcpp_compressed_pair_imp"** %40, metadata !1425, metadata !1428), !dbg !1552
  %41 = alloca %"class.std::__1::__compressed_pair"*, align 8
  call void @llvm.dbg.declare(metadata %"class.std::__1::__compressed_pair"** %41, metadata !1440, metadata !1428), !dbg !1558
  %42 = alloca %"class.std::__1::basic_string"*, align 8
  call void @llvm.dbg.declare(metadata %"class.std::__1::basic_string"** %42, metadata !1443, metadata !1428), !dbg !1559
  %43 = alloca %"class.std::__1::__libcpp_compressed_pair_imp"*, align 8
  call void @llvm.dbg.declare(metadata %"class.std::__1::__libcpp_compressed_pair_imp"** %43, metadata !1425, metadata !1428), !dbg !1560
  %44 = alloca %"class.std::__1::__compressed_pair"*, align 8
  call void @llvm.dbg.declare(metadata %"class.std::__1::__compressed_pair"** %44, metadata !1440, metadata !1428), !dbg !1564
  %45 = alloca %"class.std::__1::basic_string"*, align 8
  call void @llvm.dbg.declare(metadata %"class.std::__1::basic_string"** %45, metadata !1452, metadata !1428), !dbg !1565
  %46 = alloca %"class.std::__1::__libcpp_compressed_pair_imp"*, align 8
  call void @llvm.dbg.declare(metadata %"class.std::__1::__libcpp_compressed_pair_imp"** %46, metadata !1425, metadata !1428), !dbg !1566
  %47 = alloca %"class.std::__1::__compressed_pair"*, align 8
  call void @llvm.dbg.declare(metadata %"class.std::__1::__compressed_pair"** %47, metadata !1440, metadata !1428), !dbg !1570
  %48 = alloca %"class.std::__1::basic_string"*, align 8
  call void @llvm.dbg.declare(metadata %"class.std::__1::basic_string"** %48, metadata !1460, metadata !1428), !dbg !1571
  %49 = alloca %"class.std::__1::basic_string"*, align 8
  call void @llvm.dbg.declare(metadata %"class.std::__1::basic_string"** %49, metadata !1462, metadata !1428), !dbg !1572
  %50 = alloca i64, align 8
  %51 = alloca i8*, align 8
  call void @llvm.dbg.declare(metadata i8** %51, metadata !1464, metadata !1428), !dbg !1573
  %52 = alloca i64, align 8
  call void @llvm.dbg.declare(metadata i64* %52, metadata !1473, metadata !1428), !dbg !1575
  %53 = alloca i8*, align 8
  call void @llvm.dbg.declare(metadata i8** %53, metadata !1475, metadata !1428), !dbg !1576
  %54 = alloca i64, align 8
  call void @llvm.dbg.declare(metadata i64* %54, metadata !1477, metadata !1428), !dbg !1577
  %55 = alloca i64, align 8
  call void @llvm.dbg.declare(metadata i64* %55, metadata !1479, metadata !1428), !dbg !1578
  %56 = alloca i8*, align 8
  call void @llvm.dbg.declare(metadata i8** %56, metadata !1481, metadata !1428), !dbg !1579
  %57 = alloca i8*
  %58 = alloca i32
  %59 = alloca %"struct.std::__1::pair", align 8
  %60 = alloca i8*, align 8
  call void @llvm.dbg.declare(metadata i8** %60, metadata !1483, metadata !1428), !dbg !1580
  %61 = alloca %"class.std::__1::__libcpp_compressed_pair_imp"*, align 8
  call void @llvm.dbg.declare(metadata %"class.std::__1::__libcpp_compressed_pair_imp"** %61, metadata !1425, metadata !1428), !dbg !1583
  %62 = alloca %"class.std::__1::__compressed_pair"*, align 8
  call void @llvm.dbg.declare(metadata %"class.std::__1::__compressed_pair"** %62, metadata !1440, metadata !1428), !dbg !1588
  %63 = alloca %"class.std::__1::basic_string"*, align 8
  call void @llvm.dbg.declare(metadata %"class.std::__1::basic_string"** %63, metadata !1501, metadata !1428), !dbg !1589
  %64 = alloca i8*, align 8
  call void @llvm.dbg.declare(metadata i8** %64, metadata !1503, metadata !1428), !dbg !1590
  %65 = alloca i8*, align 8
  call void @llvm.dbg.declare(metadata i8** %65, metadata !1528, metadata !1428), !dbg !1594
  %66 = alloca %"class.std::__1::__libcpp_compressed_pair_imp"*, align 8
  call void @llvm.dbg.declare(metadata %"class.std::__1::__libcpp_compressed_pair_imp"** %66, metadata !1425, metadata !1428), !dbg !1595
  %67 = alloca %"class.std::__1::__compressed_pair"*, align 8
  call void @llvm.dbg.declare(metadata %"class.std::__1::__compressed_pair"** %67, metadata !1440, metadata !1428), !dbg !1598
  %68 = alloca %"class.std::__1::basic_string"*, align 8
  call void @llvm.dbg.declare(metadata %"class.std::__1::basic_string"** %68, metadata !1534, metadata !1428), !dbg !1599
  %69 = alloca %"class.std::__1::__libcpp_compressed_pair_imp"*, align 8
  call void @llvm.dbg.declare(metadata %"class.std::__1::__libcpp_compressed_pair_imp"** %69, metadata !1425, metadata !1428), !dbg !1600
  %70 = alloca %"class.std::__1::__compressed_pair"*, align 8
  call void @llvm.dbg.declare(metadata %"class.std::__1::__compressed_pair"** %70, metadata !1440, metadata !1428), !dbg !1604
  %71 = alloca %"class.std::__1::basic_string"*, align 8
  call void @llvm.dbg.declare(metadata %"class.std::__1::basic_string"** %71, metadata !1460, metadata !1428), !dbg !1605
  %72 = alloca %"class.std::__1::basic_string"*, align 8
  call void @llvm.dbg.declare(metadata %"class.std::__1::basic_string"** %72, metadata !1542, metadata !1428), !dbg !1606
  %73 = alloca %"class.std::__1::basic_string"*, align 8
  call void @llvm.dbg.declare(metadata %"class.std::__1::basic_string"** %73, metadata !1544, metadata !1428), !dbg !1607
  %74 = alloca %"class.std::__1::basic_string"*, align 8
  call void @llvm.dbg.declare(metadata %"class.std::__1::basic_string"** %74, metadata !1546, metadata !1428), !dbg !1608
  %75 = alloca i8*, align 8
  call void @llvm.dbg.declare(metadata i8** %75, metadata !1548, metadata !1428), !dbg !1609
  %76 = alloca i64, align 8
  call void @llvm.dbg.declare(metadata i64* %76, metadata !1550, metadata !1428), !dbg !1610
  %77 = alloca i8*
  %78 = alloca i32
  %79 = alloca %"class.std::__1::allocator"*, align 8
  call void @llvm.dbg.declare(metadata %"class.std::__1::allocator"** %79, metadata !1611, metadata !1428), !dbg !1614
  %80 = alloca %"class.std::__1::__libcpp_compressed_pair_imp"*, align 8
  call void @llvm.dbg.declare(metadata %"class.std::__1::__libcpp_compressed_pair_imp"** %80, metadata !1626, metadata !1428), !dbg !1628
  %81 = alloca %"class.std::__1::__compressed_pair"*, align 8
  call void @llvm.dbg.declare(metadata %"class.std::__1::__compressed_pair"** %81, metadata !1629, metadata !1428), !dbg !1631
  %82 = alloca %"class.std::__1::__compressed_pair"*, align 8
  call void @llvm.dbg.declare(metadata %"class.std::__1::__compressed_pair"** %82, metadata !1632, metadata !1428), !dbg !1633
  %83 = alloca %"class.std::__1::basic_string"*, align 8
  call void @llvm.dbg.declare(metadata %"class.std::__1::basic_string"** %83, metadata !1634, metadata !1428), !dbg !1636
  %84 = alloca i8*, align 8
  call void @llvm.dbg.declare(metadata i8** %84, metadata !1637, metadata !1428), !dbg !1638
  %85 = alloca %"class.std::__1::basic_string"*, align 8
  call void @llvm.dbg.declare(metadata %"class.std::__1::basic_string"** %85, metadata !1639, metadata !1428), !dbg !1640
  %86 = alloca i8*, align 8
  call void @llvm.dbg.declare(metadata i8** %86, metadata !1641, metadata !1428), !dbg !1642
  %87 = alloca %"class.std::__1::allocator"*, align 8
  call void @llvm.dbg.declare(metadata %"class.std::__1::allocator"** %87, metadata !1611, metadata !1428), !dbg !1643
  %88 = alloca %"class.std::__1::__libcpp_compressed_pair_imp"*, align 8
  call void @llvm.dbg.declare(metadata %"class.std::__1::__libcpp_compressed_pair_imp"** %88, metadata !1626, metadata !1428), !dbg !1650
  %89 = alloca %"class.std::__1::__compressed_pair"*, align 8
  call void @llvm.dbg.declare(metadata %"class.std::__1::__compressed_pair"** %89, metadata !1629, metadata !1428), !dbg !1651
  %90 = alloca %"class.std::__1::__compressed_pair"*, align 8
  call void @llvm.dbg.declare(metadata %"class.std::__1::__compressed_pair"** %90, metadata !1632, metadata !1428), !dbg !1652
  %91 = alloca %"class.std::__1::basic_string"*, align 8
  call void @llvm.dbg.declare(metadata %"class.std::__1::basic_string"** %91, metadata !1634, metadata !1428), !dbg !1653
  %92 = alloca i8*, align 8
  call void @llvm.dbg.declare(metadata i8** %92, metadata !1637, metadata !1428), !dbg !1654
  %93 = alloca %"class.std::__1::basic_string"*, align 8
  call void @llvm.dbg.declare(metadata %"class.std::__1::basic_string"** %93, metadata !1639, metadata !1428), !dbg !1655
  %94 = alloca i8*, align 8
  call void @llvm.dbg.declare(metadata i8** %94, metadata !1641, metadata !1428), !dbg !1656
  %95 = alloca i1, align 1
  %96 = alloca %"class.std::__1::basic_string", align 8
  %97 = alloca %"class.std::__1::basic_string", align 8
  %98 = alloca i8*
  %99 = alloca i32
  %100 = alloca i32
  call void @llvm.dbg.declare(metadata %"class.std::__1::basic_string"* %96, metadata !1657, metadata !1428), !dbg !1660
  store %"class.std::__1::basic_string"* %96, %"class.std::__1::basic_string"** %93, align 8, !dbg !1661
  store i8* getelementptr inbounds ([5 x i8], [5 x i8]* @.str, i32 0, i32 0), i8** %94, align 8, !dbg !1661
  %101 = load %"class.std::__1::basic_string"*, %"class.std::__1::basic_string"** %93, align 8, !dbg !1661
  %102 = load i8*, i8** %94, align 8, !dbg !1662
  store %"class.std::__1::basic_string"* %101, %"class.std::__1::basic_string"** %91, align 8, !dbg !1662
  store i8* %102, i8** %92, align 8, !dbg !1662
  %103 = load %"class.std::__1::basic_string"*, %"class.std::__1::basic_string"** %91, align 8, !dbg !1662
  %104 = bitcast %"class.std::__1::basic_string"* %103 to %"class.std::__1::__basic_string_common"*, !dbg !1663
  %105 = getelementptr inbounds %"class.std::__1::basic_string", %"class.std::__1::basic_string"* %103, i32 0, i32 0, !dbg !1664
  store %"class.std::__1::__compressed_pair"* %105, %"class.std::__1::__compressed_pair"** %90, align 8, !dbg !1664
  %106 = load %"class.std::__1::__compressed_pair"*, %"class.std::__1::__compressed_pair"** %90, align 8, !dbg !1664
  store %"class.std::__1::__compressed_pair"* %106, %"class.std::__1::__compressed_pair"** %89, align 8, !dbg !1665
  %107 = load %"class.std::__1::__compressed_pair"*, %"class.std::__1::__compressed_pair"** %89, align 8, !dbg !1665
  %108 = bitcast %"class.std::__1::__compressed_pair"* %107 to %"class.std::__1::__libcpp_compressed_pair_imp"*, !dbg !1666
  store %"class.std::__1::__libcpp_compressed_pair_imp"* %108, %"class.std::__1::__libcpp_compressed_pair_imp"** %88, align 8, !dbg !1667
  %109 = load %"class.std::__1::__libcpp_compressed_pair_imp"*, %"class.std::__1::__libcpp_compressed_pair_imp"** %88, align 8, !dbg !1667
  %110 = bitcast %"class.std::__1::__libcpp_compressed_pair_imp"* %109 to %"class.std::__1::allocator"*, !dbg !1668
  store %"class.std::__1::allocator"* %110, %"class.std::__1::allocator"** %87, align 8, !dbg !1669
  %111 = load %"class.std::__1::allocator"*, %"class.std::__1::allocator"** %87, align 8, !dbg !1669
  %112 = getelementptr inbounds %"class.std::__1::__libcpp_compressed_pair_imp", %"class.std::__1::__libcpp_compressed_pair_imp"* %109, i32 0, i32 0, !dbg !1670
  %113 = bitcast %"struct.std::__1::basic_string<char, std::__1::char_traits<char>, std::__1::allocator<char> >::__rep"* %112 to i8*, !dbg !1670
  call void @llvm.memset.p0i8.i64(i8* %113, i8 0, i64 24, i32 8, i1 false) #7, !dbg !1670
  %114 = load i8*, i8** %92, align 8, !dbg !1671
  %115 = load i8*, i8** %92, align 8, !dbg !1673
  %116 = call i64 @_ZNSt3__111char_traitsIcE6lengthEPKc(i8* %115), !dbg !1674
  call void @_ZNSt3__112basic_stringIcNS_11char_traitsIcEENS_9allocatorIcEEE6__initEPKcm(%"class.std::__1::basic_string"* %103, i8* %114, i64 %116), !dbg !1675
  call void @llvm.dbg.declare(metadata %"class.std::__1::basic_string"* %97, metadata !1676, metadata !1428), !dbg !1677
  store %"class.std::__1::basic_string"* %97, %"class.std::__1::basic_string"** %85, align 8, !dbg !1678
  store i8* getelementptr inbounds ([5 x i8], [5 x i8]* @.str.1, i32 0, i32 0), i8** %86, align 8, !dbg !1678
  %117 = load %"class.std::__1::basic_string"*, %"class.std::__1::basic_string"** %85, align 8, !dbg !1678
  %118 = load i8*, i8** %86, align 8, !dbg !1679
  store %"class.std::__1::basic_string"* %117, %"class.std::__1::basic_string"** %83, align 8, !dbg !1679
  store i8* %118, i8** %84, align 8, !dbg !1679
  %119 = load %"class.std::__1::basic_string"*, %"class.std::__1::basic_string"** %83, align 8, !dbg !1679
  %120 = bitcast %"class.std::__1::basic_string"* %119 to %"class.std::__1::__basic_string_common"*, !dbg !1680
  %121 = getelementptr inbounds %"class.std::__1::basic_string", %"class.std::__1::basic_string"* %119, i32 0, i32 0, !dbg !1681
  store %"class.std::__1::__compressed_pair"* %121, %"class.std::__1::__compressed_pair"** %82, align 8, !dbg !1681
  %122 = load %"class.std::__1::__compressed_pair"*, %"class.std::__1::__compressed_pair"** %82, align 8, !dbg !1681
  store %"class.std::__1::__compressed_pair"* %122, %"class.std::__1::__compressed_pair"** %81, align 8, !dbg !1682
  %123 = load %"class.std::__1::__compressed_pair"*, %"class.std::__1::__compressed_pair"** %81, align 8, !dbg !1682
  %124 = bitcast %"class.std::__1::__compressed_pair"* %123 to %"class.std::__1::__libcpp_compressed_pair_imp"*, !dbg !1683
  store %"class.std::__1::__libcpp_compressed_pair_imp"* %124, %"class.std::__1::__libcpp_compressed_pair_imp"** %80, align 8, !dbg !1684
  %125 = load %"class.std::__1::__libcpp_compressed_pair_imp"*, %"class.std::__1::__libcpp_compressed_pair_imp"** %80, align 8, !dbg !1684
  %126 = bitcast %"class.std::__1::__libcpp_compressed_pair_imp"* %125 to %"class.std::__1::allocator"*, !dbg !1685
  store %"class.std::__1::allocator"* %126, %"class.std::__1::allocator"** %79, align 8, !dbg !1686
  %127 = load %"class.std::__1::allocator"*, %"class.std::__1::allocator"** %79, align 8, !dbg !1686
  %128 = getelementptr inbounds %"class.std::__1::__libcpp_compressed_pair_imp", %"class.std::__1::__libcpp_compressed_pair_imp"* %125, i32 0, i32 0, !dbg !1687
  %129 = bitcast %"struct.std::__1::basic_string<char, std::__1::char_traits<char>, std::__1::allocator<char> >::__rep"* %128 to i8*, !dbg !1687
  call void @llvm.memset.p0i8.i64(i8* %129, i8 0, i64 24, i32 8, i1 false) #7, !dbg !1687
  %130 = load i8*, i8** %84, align 8, !dbg !1688
  %131 = load i8*, i8** %84, align 8, !dbg !1689
  %132 = invoke i64 @_ZNSt3__111char_traitsIcE6lengthEPKc(i8* %131)
          to label %133 unwind label %444, !dbg !1690

; <label>:133:                                    ; preds = %0
  invoke void @_ZNSt3__112basic_stringIcNS_11char_traitsIcEENS_9allocatorIcEEE6__initEPKcm(%"class.std::__1::basic_string"* %119, i8* %130, i64 %132)
          to label %134 unwind label %444, !dbg !1691

; <label>:134:                                    ; preds = %133
  br label %135, !dbg !1692

; <label>:135:                                    ; preds = %134
  store %"class.std::__1::basic_string"* %96, %"class.std::__1::basic_string"** %74, align 8, !dbg !1693
  store i8* getelementptr inbounds ([5 x i8], [5 x i8]* @.str, i32 0, i32 0), i8** %75, align 8, !dbg !1693
  store i64 0, i64* %76, align 8, !dbg !1693
  %136 = load %"class.std::__1::basic_string"*, %"class.std::__1::basic_string"** %74, align 8, !dbg !1693
  store %"class.std::__1::basic_string"* %136, %"class.std::__1::basic_string"** %73, align 8, !dbg !1694
  %137 = load %"class.std::__1::basic_string"*, %"class.std::__1::basic_string"** %73, align 8, !dbg !1694
  store %"class.std::__1::basic_string"* %137, %"class.std::__1::basic_string"** %72, align 8, !dbg !1695
  %138 = load %"class.std::__1::basic_string"*, %"class.std::__1::basic_string"** %72, align 8, !dbg !1695
  store %"class.std::__1::basic_string"* %138, %"class.std::__1::basic_string"** %71, align 8, !dbg !1696
  %139 = load %"class.std::__1::basic_string"*, %"class.std::__1::basic_string"** %71, align 8, !dbg !1696
  %140 = getelementptr inbounds %"class.std::__1::basic_string", %"class.std::__1::basic_string"* %139, i32 0, i32 0, !dbg !1697
  store %"class.std::__1::__compressed_pair"* %140, %"class.std::__1::__compressed_pair"** %70, align 8, !dbg !1698
  %141 = load %"class.std::__1::__compressed_pair"*, %"class.std::__1::__compressed_pair"** %70, align 8, !dbg !1698
  %142 = bitcast %"class.std::__1::__compressed_pair"* %141 to %"class.std::__1::__libcpp_compressed_pair_imp"*, !dbg !1699
  store %"class.std::__1::__libcpp_compressed_pair_imp"* %142, %"class.std::__1::__libcpp_compressed_pair_imp"** %69, align 8, !dbg !1699
  %143 = load %"class.std::__1::__libcpp_compressed_pair_imp"*, %"class.std::__1::__libcpp_compressed_pair_imp"** %69, align 8, !dbg !1699
  %144 = getelementptr inbounds %"class.std::__1::__libcpp_compressed_pair_imp", %"class.std::__1::__libcpp_compressed_pair_imp"* %143, i32 0, i32 0, !dbg !1700
  %145 = getelementptr inbounds %"struct.std::__1::basic_string<char, std::__1::char_traits<char>, std::__1::allocator<char> >::__rep", %"struct.std::__1::basic_string<char, std::__1::char_traits<char>, std::__1::allocator<char> >::__rep"* %144, i32 0, i32 0, !dbg !1701
  %146 = bitcast %union.anon* %145 to %"struct.std::__1::basic_string<char, std::__1::char_traits<char>, std::__1::allocator<char> >::__short"*, !dbg !1701
  %147 = getelementptr inbounds %"struct.std::__1::basic_string<char, std::__1::char_traits<char>, std::__1::allocator<char> >::__short", %"struct.std::__1::basic_string<char, std::__1::char_traits<char>, std::__1::allocator<char> >::__short"* %146, i32 0, i32 0, !dbg !1702
  %148 = bitcast %union.anon.0* %147 to i8*, !dbg !1702
  %149 = load i8, i8* %148, align 8, !dbg !1702
  %150 = zext i8 %149 to i32, !dbg !1697
  %151 = and i32 %150, 1, !dbg !1703
  %152 = icmp ne i32 %151, 0, !dbg !1697
  br i1 %152, label %153, label %164, !dbg !1696

; <label>:153:                                    ; preds = %135
  store %"class.std::__1::basic_string"* %138, %"class.std::__1::basic_string"** %63, align 8, !dbg !1704
  %154 = load %"class.std::__1::basic_string"*, %"class.std::__1::basic_string"** %63, align 8, !dbg !1704
  %155 = getelementptr inbounds %"class.std::__1::basic_string", %"class.std::__1::basic_string"* %154, i32 0, i32 0, !dbg !1705
  store %"class.std::__1::__compressed_pair"* %155, %"class.std::__1::__compressed_pair"** %62, align 8, !dbg !1706
  %156 = load %"class.std::__1::__compressed_pair"*, %"class.std::__1::__compressed_pair"** %62, align 8, !dbg !1706
  %157 = bitcast %"class.std::__1::__compressed_pair"* %156 to %"class.std::__1::__libcpp_compressed_pair_imp"*, !dbg !1707
  store %"class.std::__1::__libcpp_compressed_pair_imp"* %157, %"class.std::__1::__libcpp_compressed_pair_imp"** %61, align 8, !dbg !1707
  %158 = load %"class.std::__1::__libcpp_compressed_pair_imp"*, %"class.std::__1::__libcpp_compressed_pair_imp"** %61, align 8, !dbg !1707
  %159 = getelementptr inbounds %"class.std::__1::__libcpp_compressed_pair_imp", %"class.std::__1::__libcpp_compressed_pair_imp"* %158, i32 0, i32 0, !dbg !1708
  %160 = getelementptr inbounds %"struct.std::__1::basic_string<char, std::__1::char_traits<char>, std::__1::allocator<char> >::__rep", %"struct.std::__1::basic_string<char, std::__1::char_traits<char>, std::__1::allocator<char> >::__rep"* %159, i32 0, i32 0, !dbg !1709
  %161 = bitcast %union.anon* %160 to %"struct.std::__1::basic_string<char, std::__1::char_traits<char>, std::__1::allocator<char> >::__long"*, !dbg !1709
  %162 = getelementptr inbounds %"struct.std::__1::basic_string<char, std::__1::char_traits<char>, std::__1::allocator<char> >::__long", %"struct.std::__1::basic_string<char, std::__1::char_traits<char>, std::__1::allocator<char> >::__long"* %161, i32 0, i32 2, !dbg !1710
  %163 = load i8*, i8** %162, align 8, !dbg !1710
  br label %177, !dbg !1696

; <label>:164:                                    ; preds = %135
  store %"class.std::__1::basic_string"* %138, %"class.std::__1::basic_string"** %68, align 8, !dbg !1711
  %165 = load %"class.std::__1::basic_string"*, %"class.std::__1::basic_string"** %68, align 8, !dbg !1711
  %166 = getelementptr inbounds %"class.std::__1::basic_string", %"class.std::__1::basic_string"* %165, i32 0, i32 0, !dbg !1712
  store %"class.std::__1::__compressed_pair"* %166, %"class.std::__1::__compressed_pair"** %67, align 8, !dbg !1713
  %167 = load %"class.std::__1::__compressed_pair"*, %"class.std::__1::__compressed_pair"** %67, align 8, !dbg !1713
  %168 = bitcast %"class.std::__1::__compressed_pair"* %167 to %"class.std::__1::__libcpp_compressed_pair_imp"*, !dbg !1714
  store %"class.std::__1::__libcpp_compressed_pair_imp"* %168, %"class.std::__1::__libcpp_compressed_pair_imp"** %66, align 8, !dbg !1714
  %169 = load %"class.std::__1::__libcpp_compressed_pair_imp"*, %"class.std::__1::__libcpp_compressed_pair_imp"** %66, align 8, !dbg !1714
  %170 = getelementptr inbounds %"class.std::__1::__libcpp_compressed_pair_imp", %"class.std::__1::__libcpp_compressed_pair_imp"* %169, i32 0, i32 0, !dbg !1715
  %171 = getelementptr inbounds %"struct.std::__1::basic_string<char, std::__1::char_traits<char>, std::__1::allocator<char> >::__rep", %"struct.std::__1::basic_string<char, std::__1::char_traits<char>, std::__1::allocator<char> >::__rep"* %170, i32 0, i32 0, !dbg !1716
  %172 = bitcast %union.anon* %171 to %"struct.std::__1::basic_string<char, std::__1::char_traits<char>, std::__1::allocator<char> >::__short"*, !dbg !1716
  %173 = getelementptr inbounds %"struct.std::__1::basic_string<char, std::__1::char_traits<char>, std::__1::allocator<char> >::__short", %"struct.std::__1::basic_string<char, std::__1::char_traits<char>, std::__1::allocator<char> >::__short"* %172, i32 0, i32 1, !dbg !1717
  %174 = getelementptr inbounds [23 x i8], [23 x i8]* %173, i64 0, i64 0, !dbg !1712
  store i8* %174, i8** %65, align 8, !dbg !1718
  %175 = load i8*, i8** %65, align 8, !dbg !1719
  store i8* %175, i8** %64, align 8, !dbg !1720
  %176 = load i8*, i8** %64, align 8, !dbg !1721
  br label %177, !dbg !1696

; <label>:177:                                    ; preds = %164, %153
  %178 = phi i8* [ %163, %153 ], [ %176, %164 ], !dbg !1696
  store i8* %178, i8** %60, align 8, !dbg !1722
  %179 = load i8*, i8** %60, align 8, !dbg !1723
  store %"class.std::__1::basic_string"* %136, %"class.std::__1::basic_string"** %49, align 8, !dbg !1724
  %180 = load %"class.std::__1::basic_string"*, %"class.std::__1::basic_string"** %49, align 8, !dbg !1724
  store %"class.std::__1::basic_string"* %180, %"class.std::__1::basic_string"** %48, align 8, !dbg !1725
  %181 = load %"class.std::__1::basic_string"*, %"class.std::__1::basic_string"** %48, align 8, !dbg !1725
  %182 = getelementptr inbounds %"class.std::__1::basic_string", %"class.std::__1::basic_string"* %181, i32 0, i32 0, !dbg !1726
  store %"class.std::__1::__compressed_pair"* %182, %"class.std::__1::__compressed_pair"** %47, align 8, !dbg !1727
  %183 = load %"class.std::__1::__compressed_pair"*, %"class.std::__1::__compressed_pair"** %47, align 8, !dbg !1727
  %184 = bitcast %"class.std::__1::__compressed_pair"* %183 to %"class.std::__1::__libcpp_compressed_pair_imp"*, !dbg !1728
  store %"class.std::__1::__libcpp_compressed_pair_imp"* %184, %"class.std::__1::__libcpp_compressed_pair_imp"** %46, align 8, !dbg !1728
  %185 = load %"class.std::__1::__libcpp_compressed_pair_imp"*, %"class.std::__1::__libcpp_compressed_pair_imp"** %46, align 8, !dbg !1728
  %186 = getelementptr inbounds %"class.std::__1::__libcpp_compressed_pair_imp", %"class.std::__1::__libcpp_compressed_pair_imp"* %185, i32 0, i32 0, !dbg !1729
  %187 = getelementptr inbounds %"struct.std::__1::basic_string<char, std::__1::char_traits<char>, std::__1::allocator<char> >::__rep", %"struct.std::__1::basic_string<char, std::__1::char_traits<char>, std::__1::allocator<char> >::__rep"* %186, i32 0, i32 0, !dbg !1730
  %188 = bitcast %union.anon* %187 to %"struct.std::__1::basic_string<char, std::__1::char_traits<char>, std::__1::allocator<char> >::__short"*, !dbg !1730
  %189 = getelementptr inbounds %"struct.std::__1::basic_string<char, std::__1::char_traits<char>, std::__1::allocator<char> >::__short", %"struct.std::__1::basic_string<char, std::__1::char_traits<char>, std::__1::allocator<char> >::__short"* %188, i32 0, i32 0, !dbg !1731
  %190 = bitcast %union.anon.0* %189 to i8*, !dbg !1731
  %191 = load i8, i8* %190, align 8, !dbg !1731
  %192 = zext i8 %191 to i32, !dbg !1726
  %193 = and i32 %192, 1, !dbg !1732
  %194 = icmp ne i32 %193, 0, !dbg !1726
  br i1 %194, label %195, label %206, !dbg !1725

; <label>:195:                                    ; preds = %177
  store %"class.std::__1::basic_string"* %180, %"class.std::__1::basic_string"** %42, align 8, !dbg !1733
  %196 = load %"class.std::__1::basic_string"*, %"class.std::__1::basic_string"** %42, align 8, !dbg !1733
  %197 = getelementptr inbounds %"class.std::__1::basic_string", %"class.std::__1::basic_string"* %196, i32 0, i32 0, !dbg !1734
  store %"class.std::__1::__compressed_pair"* %197, %"class.std::__1::__compressed_pair"** %41, align 8, !dbg !1735
  %198 = load %"class.std::__1::__compressed_pair"*, %"class.std::__1::__compressed_pair"** %41, align 8, !dbg !1735
  %199 = bitcast %"class.std::__1::__compressed_pair"* %198 to %"class.std::__1::__libcpp_compressed_pair_imp"*, !dbg !1736
  store %"class.std::__1::__libcpp_compressed_pair_imp"* %199, %"class.std::__1::__libcpp_compressed_pair_imp"** %40, align 8, !dbg !1736
  %200 = load %"class.std::__1::__libcpp_compressed_pair_imp"*, %"class.std::__1::__libcpp_compressed_pair_imp"** %40, align 8, !dbg !1736
  %201 = getelementptr inbounds %"class.std::__1::__libcpp_compressed_pair_imp", %"class.std::__1::__libcpp_compressed_pair_imp"* %200, i32 0, i32 0, !dbg !1737
  %202 = getelementptr inbounds %"struct.std::__1::basic_string<char, std::__1::char_traits<char>, std::__1::allocator<char> >::__rep", %"struct.std::__1::basic_string<char, std::__1::char_traits<char>, std::__1::allocator<char> >::__rep"* %201, i32 0, i32 0, !dbg !1738
  %203 = bitcast %union.anon* %202 to %"struct.std::__1::basic_string<char, std::__1::char_traits<char>, std::__1::allocator<char> >::__long"*, !dbg !1738
  %204 = getelementptr inbounds %"struct.std::__1::basic_string<char, std::__1::char_traits<char>, std::__1::allocator<char> >::__long", %"struct.std::__1::basic_string<char, std::__1::char_traits<char>, std::__1::allocator<char> >::__long"* %203, i32 0, i32 1, !dbg !1739
  %205 = load i64, i64* %204, align 8, !dbg !1739
  br label %221, !dbg !1725

; <label>:206:                                    ; preds = %177
  store %"class.std::__1::basic_string"* %180, %"class.std::__1::basic_string"** %45, align 8, !dbg !1740
  %207 = load %"class.std::__1::basic_string"*, %"class.std::__1::basic_string"** %45, align 8, !dbg !1740
  %208 = getelementptr inbounds %"class.std::__1::basic_string", %"class.std::__1::basic_string"* %207, i32 0, i32 0, !dbg !1741
  store %"class.std::__1::__compressed_pair"* %208, %"class.std::__1::__compressed_pair"** %44, align 8, !dbg !1742
  %209 = load %"class.std::__1::__compressed_pair"*, %"class.std::__1::__compressed_pair"** %44, align 8, !dbg !1742
  %210 = bitcast %"class.std::__1::__compressed_pair"* %209 to %"class.std::__1::__libcpp_compressed_pair_imp"*, !dbg !1743
  store %"class.std::__1::__libcpp_compressed_pair_imp"* %210, %"class.std::__1::__libcpp_compressed_pair_imp"** %43, align 8, !dbg !1743
  %211 = load %"class.std::__1::__libcpp_compressed_pair_imp"*, %"class.std::__1::__libcpp_compressed_pair_imp"** %43, align 8, !dbg !1743
  %212 = getelementptr inbounds %"class.std::__1::__libcpp_compressed_pair_imp", %"class.std::__1::__libcpp_compressed_pair_imp"* %211, i32 0, i32 0, !dbg !1744
  %213 = getelementptr inbounds %"struct.std::__1::basic_string<char, std::__1::char_traits<char>, std::__1::allocator<char> >::__rep", %"struct.std::__1::basic_string<char, std::__1::char_traits<char>, std::__1::allocator<char> >::__rep"* %212, i32 0, i32 0, !dbg !1745
  %214 = bitcast %union.anon* %213 to %"struct.std::__1::basic_string<char, std::__1::char_traits<char>, std::__1::allocator<char> >::__short"*, !dbg !1745
  %215 = getelementptr inbounds %"struct.std::__1::basic_string<char, std::__1::char_traits<char>, std::__1::allocator<char> >::__short", %"struct.std::__1::basic_string<char, std::__1::char_traits<char>, std::__1::allocator<char> >::__short"* %214, i32 0, i32 0, !dbg !1746
  %216 = bitcast %union.anon.0* %215 to i8*, !dbg !1746
  %217 = load i8, i8* %216, align 8, !dbg !1746
  %218 = zext i8 %217 to i32, !dbg !1741
  %219 = ashr i32 %218, 1, !dbg !1747
  %220 = sext i32 %219 to i64, !dbg !1741
  br label %221, !dbg !1725

; <label>:221:                                    ; preds = %206, %195
  %222 = phi i64 [ %205, %195 ], [ %220, %206 ], !dbg !1725
  %223 = load i8*, i8** %75, align 8, !dbg !1748
  %224 = load i64, i64* %76, align 8, !dbg !1749
  %225 = load i8*, i8** %75, align 8, !dbg !1750
  %226 = invoke i64 @_ZNSt3__111char_traitsIcE6lengthEPKc(i8* %225)
          to label %227 unwind label %280, !dbg !1751

; <label>:227:                                    ; preds = %221
  store i8* %179, i8** %51, align 8, !dbg !1752
  store i64 %222, i64* %52, align 8, !dbg !1752
  store i8* %223, i8** %53, align 8, !dbg !1752
  store i64 %224, i64* %54, align 8, !dbg !1752
  store i64 %226, i64* %55, align 8, !dbg !1752
  %228 = load i64, i64* %54, align 8, !dbg !1753
  %229 = load i64, i64* %52, align 8, !dbg !1755
  %230 = icmp ugt i64 %228, %229, !dbg !1756
  br i1 %230, label %237, label %231, !dbg !1757

; <label>:231:                                    ; preds = %227
  %232 = load i64, i64* %52, align 8, !dbg !1758
  %233 = load i64, i64* %54, align 8, !dbg !1759
  %234 = sub i64 %232, %233, !dbg !1760
  %235 = load i64, i64* %55, align 8, !dbg !1761
  %236 = icmp ult i64 %234, %235, !dbg !1762
  br i1 %236, label %237, label %238, !dbg !1763

; <label>:237:                                    ; preds = %231, %227
  store i64 -1, i64* %50, align 8, !dbg !1764
  br label %285, !dbg !1764

; <label>:238:                                    ; preds = %231
  %239 = load i64, i64* %55, align 8, !dbg !1765
  %240 = icmp eq i64 %239, 0, !dbg !1767
  br i1 %240, label %241, label %243, !dbg !1768

; <label>:241:                                    ; preds = %238
  %242 = load i64, i64* %54, align 8, !dbg !1769
  store i64 %242, i64* %50, align 8, !dbg !1770
  br label %285, !dbg !1770

; <label>:243:                                    ; preds = %238
  %244 = load i8*, i8** %51, align 8, !dbg !1771
  %245 = load i64, i64* %54, align 8, !dbg !1772
  %246 = getelementptr inbounds i8, i8* %244, i64 %245, !dbg !1773
  %247 = load i8*, i8** %51, align 8, !dbg !1774
  %248 = load i64, i64* %52, align 8, !dbg !1775
  %249 = getelementptr inbounds i8, i8* %247, i64 %248, !dbg !1776
  %250 = load i8*, i8** %53, align 8, !dbg !1777
  %251 = load i8*, i8** %53, align 8, !dbg !1778
  %252 = load i64, i64* %55, align 8, !dbg !1779
  %253 = getelementptr inbounds i8, i8* %251, i64 %252, !dbg !1780
  %254 = invoke { i8*, i8* } @_ZNSt3__18__searchIPFbccEPKcS4_EENS_4pairIT0_S6_EES6_S6_T1_S8_T_NS_26random_access_iterator_tagESA_(i8* %246, i8* %249, i8* %250, i8* %253, i1 (i8, i8)* @_ZNSt3__111char_traitsIcE2eqEcc)
          to label %255 unwind label %269, !dbg !1781

; <label>:255:                                    ; preds = %243
  %256 = bitcast %"struct.std::__1::pair"* %59 to { i8*, i8* }*, !dbg !1781
  %257 = getelementptr inbounds { i8*, i8* }, { i8*, i8* }* %256, i32 0, i32 0, !dbg !1781
  %258 = extractvalue { i8*, i8* } %254, 0, !dbg !1781
  store i8* %258, i8** %257, align 8, !dbg !1781
  %259 = getelementptr inbounds { i8*, i8* }, { i8*, i8* }* %256, i32 0, i32 1, !dbg !1781
  %260 = extractvalue { i8*, i8* } %254, 1, !dbg !1781
  store i8* %260, i8** %259, align 8, !dbg !1781
  %261 = getelementptr inbounds %"struct.std::__1::pair", %"struct.std::__1::pair"* %59, i32 0, i32 0, !dbg !1782
  %262 = load i8*, i8** %261, align 8, !dbg !1782
  store i8* %262, i8** %56, align 8, !dbg !1579
  %263 = load i8*, i8** %56, align 8, !dbg !1783
  %264 = load i8*, i8** %51, align 8, !dbg !1785
  %265 = load i64, i64* %52, align 8, !dbg !1786
  %266 = getelementptr inbounds i8, i8* %264, i64 %265, !dbg !1787
  %267 = icmp eq i8* %263, %266, !dbg !1788
  br i1 %267, label %268, label %274, !dbg !1789

; <label>:268:                                    ; preds = %255
  store i64 -1, i64* %50, align 8, !dbg !1790
  br label %285, !dbg !1790

; <label>:269:                                    ; preds = %243
  %270 = landingpad { i8*, i32 }
          filter [0 x i8*] zeroinitializer, !dbg !1791
  %271 = extractvalue { i8*, i32 } %270, 0, !dbg !1791
  store i8* %271, i8** %57, align 8, !dbg !1791
  %272 = extractvalue { i8*, i32 } %270, 1, !dbg !1791
  store i32 %272, i32* %58, align 4, !dbg !1791
  %273 = load i8*, i8** %57, align 8, !dbg !1791
  call void @__cxa_call_unexpected(i8* %273) #8, !dbg !1791
  unreachable, !dbg !1791

; <label>:274:                                    ; preds = %255
  %275 = load i8*, i8** %56, align 8, !dbg !1792
  %276 = load i8*, i8** %51, align 8, !dbg !1793
  %277 = ptrtoint i8* %275 to i64, !dbg !1794
  %278 = ptrtoint i8* %276 to i64, !dbg !1794
  %279 = sub i64 %277, %278, !dbg !1794
  store i64 %279, i64* %50, align 8, !dbg !1795
  br label %285, !dbg !1795

; <label>:280:                                    ; preds = %221
  %281 = landingpad { i8*, i32 }
          filter [0 x i8*] zeroinitializer, !dbg !1796
  %282 = extractvalue { i8*, i32 } %281, 0, !dbg !1796
  store i8* %282, i8** %77, align 8, !dbg !1796
  %283 = extractvalue { i8*, i32 } %281, 1, !dbg !1796
  store i32 %283, i32* %78, align 4, !dbg !1796
  %284 = load i8*, i8** %77, align 8, !dbg !1797
  call void @__cxa_call_unexpected(i8* %284) #8, !dbg !1797
  unreachable, !dbg !1797

; <label>:285:                                    ; preds = %237, %241, %268, %274
  %286 = load i64, i64* %50, align 8, !dbg !1791
  %287 = icmp ne i64 %286, -1, !dbg !1798
  br i1 %287, label %441, label %288, !dbg !1799

; <label>:288:                                    ; preds = %285
  store %"class.std::__1::basic_string"* %97, %"class.std::__1::basic_string"** %35, align 8, !dbg !1800
  store i8* getelementptr inbounds ([5 x i8], [5 x i8]* @.str, i32 0, i32 0), i8** %36, align 8, !dbg !1800
  store i64 0, i64* %37, align 8, !dbg !1800
  %289 = load %"class.std::__1::basic_string"*, %"class.std::__1::basic_string"** %35, align 8, !dbg !1800
  store %"class.std::__1::basic_string"* %289, %"class.std::__1::basic_string"** %34, align 8, !dbg !1801
  %290 = load %"class.std::__1::basic_string"*, %"class.std::__1::basic_string"** %34, align 8, !dbg !1801
  store %"class.std::__1::basic_string"* %290, %"class.std::__1::basic_string"** %33, align 8, !dbg !1802
  %291 = load %"class.std::__1::basic_string"*, %"class.std::__1::basic_string"** %33, align 8, !dbg !1802
  store %"class.std::__1::basic_string"* %291, %"class.std::__1::basic_string"** %32, align 8, !dbg !1803
  %292 = load %"class.std::__1::basic_string"*, %"class.std::__1::basic_string"** %32, align 8, !dbg !1803
  %293 = getelementptr inbounds %"class.std::__1::basic_string", %"class.std::__1::basic_string"* %292, i32 0, i32 0, !dbg !1804
  store %"class.std::__1::__compressed_pair"* %293, %"class.std::__1::__compressed_pair"** %31, align 8, !dbg !1805
  %294 = load %"class.std::__1::__compressed_pair"*, %"class.std::__1::__compressed_pair"** %31, align 8, !dbg !1805
  %295 = bitcast %"class.std::__1::__compressed_pair"* %294 to %"class.std::__1::__libcpp_compressed_pair_imp"*, !dbg !1806
  store %"class.std::__1::__libcpp_compressed_pair_imp"* %295, %"class.std::__1::__libcpp_compressed_pair_imp"** %30, align 8, !dbg !1806
  %296 = load %"class.std::__1::__libcpp_compressed_pair_imp"*, %"class.std::__1::__libcpp_compressed_pair_imp"** %30, align 8, !dbg !1806
  %297 = getelementptr inbounds %"class.std::__1::__libcpp_compressed_pair_imp", %"class.std::__1::__libcpp_compressed_pair_imp"* %296, i32 0, i32 0, !dbg !1807
  %298 = getelementptr inbounds %"struct.std::__1::basic_string<char, std::__1::char_traits<char>, std::__1::allocator<char> >::__rep", %"struct.std::__1::basic_string<char, std::__1::char_traits<char>, std::__1::allocator<char> >::__rep"* %297, i32 0, i32 0, !dbg !1808
  %299 = bitcast %union.anon* %298 to %"struct.std::__1::basic_string<char, std::__1::char_traits<char>, std::__1::allocator<char> >::__short"*, !dbg !1808
  %300 = getelementptr inbounds %"struct.std::__1::basic_string<char, std::__1::char_traits<char>, std::__1::allocator<char> >::__short", %"struct.std::__1::basic_string<char, std::__1::char_traits<char>, std::__1::allocator<char> >::__short"* %299, i32 0, i32 0, !dbg !1809
  %301 = bitcast %union.anon.0* %300 to i8*, !dbg !1809
  %302 = load i8, i8* %301, align 8, !dbg !1809
  %303 = zext i8 %302 to i32, !dbg !1804
  %304 = and i32 %303, 1, !dbg !1810
  %305 = icmp ne i32 %304, 0, !dbg !1804
  br i1 %305, label %306, label %317, !dbg !1803

; <label>:306:                                    ; preds = %288
  store %"class.std::__1::basic_string"* %291, %"class.std::__1::basic_string"** %24, align 8, !dbg !1811
  %307 = load %"class.std::__1::basic_string"*, %"class.std::__1::basic_string"** %24, align 8, !dbg !1811
  %308 = getelementptr inbounds %"class.std::__1::basic_string", %"class.std::__1::basic_string"* %307, i32 0, i32 0, !dbg !1812
  store %"class.std::__1::__compressed_pair"* %308, %"class.std::__1::__compressed_pair"** %23, align 8, !dbg !1813
  %309 = load %"class.std::__1::__compressed_pair"*, %"class.std::__1::__compressed_pair"** %23, align 8, !dbg !1813
  %310 = bitcast %"class.std::__1::__compressed_pair"* %309 to %"class.std::__1::__libcpp_compressed_pair_imp"*, !dbg !1814
  store %"class.std::__1::__libcpp_compressed_pair_imp"* %310, %"class.std::__1::__libcpp_compressed_pair_imp"** %22, align 8, !dbg !1814
  %311 = load %"class.std::__1::__libcpp_compressed_pair_imp"*, %"class.std::__1::__libcpp_compressed_pair_imp"** %22, align 8, !dbg !1814
  %312 = getelementptr inbounds %"class.std::__1::__libcpp_compressed_pair_imp", %"class.std::__1::__libcpp_compressed_pair_imp"* %311, i32 0, i32 0, !dbg !1815
  %313 = getelementptr inbounds %"struct.std::__1::basic_string<char, std::__1::char_traits<char>, std::__1::allocator<char> >::__rep", %"struct.std::__1::basic_string<char, std::__1::char_traits<char>, std::__1::allocator<char> >::__rep"* %312, i32 0, i32 0, !dbg !1816
  %314 = bitcast %union.anon* %313 to %"struct.std::__1::basic_string<char, std::__1::char_traits<char>, std::__1::allocator<char> >::__long"*, !dbg !1816
  %315 = getelementptr inbounds %"struct.std::__1::basic_string<char, std::__1::char_traits<char>, std::__1::allocator<char> >::__long", %"struct.std::__1::basic_string<char, std::__1::char_traits<char>, std::__1::allocator<char> >::__long"* %314, i32 0, i32 2, !dbg !1817
  %316 = load i8*, i8** %315, align 8, !dbg !1817
  br label %330, !dbg !1803

; <label>:317:                                    ; preds = %288
  store %"class.std::__1::basic_string"* %291, %"class.std::__1::basic_string"** %29, align 8, !dbg !1818
  %318 = load %"class.std::__1::basic_string"*, %"class.std::__1::basic_string"** %29, align 8, !dbg !1818
  %319 = getelementptr inbounds %"class.std::__1::basic_string", %"class.std::__1::basic_string"* %318, i32 0, i32 0, !dbg !1819
  store %"class.std::__1::__compressed_pair"* %319, %"class.std::__1::__compressed_pair"** %28, align 8, !dbg !1820
  %320 = load %"class.std::__1::__compressed_pair"*, %"class.std::__1::__compressed_pair"** %28, align 8, !dbg !1820
  %321 = bitcast %"class.std::__1::__compressed_pair"* %320 to %"class.std::__1::__libcpp_compressed_pair_imp"*, !dbg !1821
  store %"class.std::__1::__libcpp_compressed_pair_imp"* %321, %"class.std::__1::__libcpp_compressed_pair_imp"** %27, align 8, !dbg !1821
  %322 = load %"class.std::__1::__libcpp_compressed_pair_imp"*, %"class.std::__1::__libcpp_compressed_pair_imp"** %27, align 8, !dbg !1821
  %323 = getelementptr inbounds %"class.std::__1::__libcpp_compressed_pair_imp", %"class.std::__1::__libcpp_compressed_pair_imp"* %322, i32 0, i32 0, !dbg !1822
  %324 = getelementptr inbounds %"struct.std::__1::basic_string<char, std::__1::char_traits<char>, std::__1::allocator<char> >::__rep", %"struct.std::__1::basic_string<char, std::__1::char_traits<char>, std::__1::allocator<char> >::__rep"* %323, i32 0, i32 0, !dbg !1823
  %325 = bitcast %union.anon* %324 to %"struct.std::__1::basic_string<char, std::__1::char_traits<char>, std::__1::allocator<char> >::__short"*, !dbg !1823
  %326 = getelementptr inbounds %"struct.std::__1::basic_string<char, std::__1::char_traits<char>, std::__1::allocator<char> >::__short", %"struct.std::__1::basic_string<char, std::__1::char_traits<char>, std::__1::allocator<char> >::__short"* %325, i32 0, i32 1, !dbg !1824
  %327 = getelementptr inbounds [23 x i8], [23 x i8]* %326, i64 0, i64 0, !dbg !1819
  store i8* %327, i8** %26, align 8, !dbg !1825
  %328 = load i8*, i8** %26, align 8, !dbg !1826
  store i8* %328, i8** %25, align 8, !dbg !1827
  %329 = load i8*, i8** %25, align 8, !dbg !1828
  br label %330, !dbg !1803

; <label>:330:                                    ; preds = %317, %306
  %331 = phi i8* [ %316, %306 ], [ %329, %317 ], !dbg !1803
  store i8* %331, i8** %21, align 8, !dbg !1829
  %332 = load i8*, i8** %21, align 8, !dbg !1830
  store %"class.std::__1::basic_string"* %289, %"class.std::__1::basic_string"** %10, align 8, !dbg !1831
  %333 = load %"class.std::__1::basic_string"*, %"class.std::__1::basic_string"** %10, align 8, !dbg !1831
  store %"class.std::__1::basic_string"* %333, %"class.std::__1::basic_string"** %9, align 8, !dbg !1832
  %334 = load %"class.std::__1::basic_string"*, %"class.std::__1::basic_string"** %9, align 8, !dbg !1832
  %335 = getelementptr inbounds %"class.std::__1::basic_string", %"class.std::__1::basic_string"* %334, i32 0, i32 0, !dbg !1833
  store %"class.std::__1::__compressed_pair"* %335, %"class.std::__1::__compressed_pair"** %8, align 8, !dbg !1834
  %336 = load %"class.std::__1::__compressed_pair"*, %"class.std::__1::__compressed_pair"** %8, align 8, !dbg !1834
  %337 = bitcast %"class.std::__1::__compressed_pair"* %336 to %"class.std::__1::__libcpp_compressed_pair_imp"*, !dbg !1835
  store %"class.std::__1::__libcpp_compressed_pair_imp"* %337, %"class.std::__1::__libcpp_compressed_pair_imp"** %7, align 8, !dbg !1835
  %338 = load %"class.std::__1::__libcpp_compressed_pair_imp"*, %"class.std::__1::__libcpp_compressed_pair_imp"** %7, align 8, !dbg !1835
  %339 = getelementptr inbounds %"class.std::__1::__libcpp_compressed_pair_imp", %"class.std::__1::__libcpp_compressed_pair_imp"* %338, i32 0, i32 0, !dbg !1836
  %340 = getelementptr inbounds %"struct.std::__1::basic_string<char, std::__1::char_traits<char>, std::__1::allocator<char> >::__rep", %"struct.std::__1::basic_string<char, std::__1::char_traits<char>, std::__1::allocator<char> >::__rep"* %339, i32 0, i32 0, !dbg !1837
  %341 = bitcast %union.anon* %340 to %"struct.std::__1::basic_string<char, std::__1::char_traits<char>, std::__1::allocator<char> >::__short"*, !dbg !1837
  %342 = getelementptr inbounds %"struct.std::__1::basic_string<char, std::__1::char_traits<char>, std::__1::allocator<char> >::__short", %"struct.std::__1::basic_string<char, std::__1::char_traits<char>, std::__1::allocator<char> >::__short"* %341, i32 0, i32 0, !dbg !1838
  %343 = bitcast %union.anon.0* %342 to i8*, !dbg !1838
  %344 = load i8, i8* %343, align 8, !dbg !1838
  %345 = zext i8 %344 to i32, !dbg !1833
  %346 = and i32 %345, 1, !dbg !1839
  %347 = icmp ne i32 %346, 0, !dbg !1833
  br i1 %347, label %348, label %359, !dbg !1832

; <label>:348:                                    ; preds = %330
  store %"class.std::__1::basic_string"* %333, %"class.std::__1::basic_string"** %3, align 8, !dbg !1840
  %349 = load %"class.std::__1::basic_string"*, %"class.std::__1::basic_string"** %3, align 8, !dbg !1840
  %350 = getelementptr inbounds %"class.std::__1::basic_string", %"class.std::__1::basic_string"* %349, i32 0, i32 0, !dbg !1841
  store %"class.std::__1::__compressed_pair"* %350, %"class.std::__1::__compressed_pair"** %2, align 8, !dbg !1842
  %351 = load %"class.std::__1::__compressed_pair"*, %"class.std::__1::__compressed_pair"** %2, align 8, !dbg !1842
  %352 = bitcast %"class.std::__1::__compressed_pair"* %351 to %"class.std::__1::__libcpp_compressed_pair_imp"*, !dbg !1843
  store %"class.std::__1::__libcpp_compressed_pair_imp"* %352, %"class.std::__1::__libcpp_compressed_pair_imp"** %1, align 8, !dbg !1843
  %353 = load %"class.std::__1::__libcpp_compressed_pair_imp"*, %"class.std::__1::__libcpp_compressed_pair_imp"** %1, align 8, !dbg !1843
  %354 = getelementptr inbounds %"class.std::__1::__libcpp_compressed_pair_imp", %"class.std::__1::__libcpp_compressed_pair_imp"* %353, i32 0, i32 0, !dbg !1844
  %355 = getelementptr inbounds %"struct.std::__1::basic_string<char, std::__1::char_traits<char>, std::__1::allocator<char> >::__rep", %"struct.std::__1::basic_string<char, std::__1::char_traits<char>, std::__1::allocator<char> >::__rep"* %354, i32 0, i32 0, !dbg !1845
  %356 = bitcast %union.anon* %355 to %"struct.std::__1::basic_string<char, std::__1::char_traits<char>, std::__1::allocator<char> >::__long"*, !dbg !1845
  %357 = getelementptr inbounds %"struct.std::__1::basic_string<char, std::__1::char_traits<char>, std::__1::allocator<char> >::__long", %"struct.std::__1::basic_string<char, std::__1::char_traits<char>, std::__1::allocator<char> >::__long"* %356, i32 0, i32 1, !dbg !1846
  %358 = load i64, i64* %357, align 8, !dbg !1846
  br label %374, !dbg !1832

; <label>:359:                                    ; preds = %330
  store %"class.std::__1::basic_string"* %333, %"class.std::__1::basic_string"** %6, align 8, !dbg !1847
  %360 = load %"class.std::__1::basic_string"*, %"class.std::__1::basic_string"** %6, align 8, !dbg !1847
  %361 = getelementptr inbounds %"class.std::__1::basic_string", %"class.std::__1::basic_string"* %360, i32 0, i32 0, !dbg !1848
  store %"class.std::__1::__compressed_pair"* %361, %"class.std::__1::__compressed_pair"** %5, align 8, !dbg !1849
  %362 = load %"class.std::__1::__compressed_pair"*, %"class.std::__1::__compressed_pair"** %5, align 8, !dbg !1849
  %363 = bitcast %"class.std::__1::__compressed_pair"* %362 to %"class.std::__1::__libcpp_compressed_pair_imp"*, !dbg !1850
  store %"class.std::__1::__libcpp_compressed_pair_imp"* %363, %"class.std::__1::__libcpp_compressed_pair_imp"** %4, align 8, !dbg !1850
  %364 = load %"class.std::__1::__libcpp_compressed_pair_imp"*, %"class.std::__1::__libcpp_compressed_pair_imp"** %4, align 8, !dbg !1850
  %365 = getelementptr inbounds %"class.std::__1::__libcpp_compressed_pair_imp", %"class.std::__1::__libcpp_compressed_pair_imp"* %364, i32 0, i32 0, !dbg !1851
  %366 = getelementptr inbounds %"struct.std::__1::basic_string<char, std::__1::char_traits<char>, std::__1::allocator<char> >::__rep", %"struct.std::__1::basic_string<char, std::__1::char_traits<char>, std::__1::allocator<char> >::__rep"* %365, i32 0, i32 0, !dbg !1852
  %367 = bitcast %union.anon* %366 to %"struct.std::__1::basic_string<char, std::__1::char_traits<char>, std::__1::allocator<char> >::__short"*, !dbg !1852
  %368 = getelementptr inbounds %"struct.std::__1::basic_string<char, std::__1::char_traits<char>, std::__1::allocator<char> >::__short", %"struct.std::__1::basic_string<char, std::__1::char_traits<char>, std::__1::allocator<char> >::__short"* %367, i32 0, i32 0, !dbg !1853
  %369 = bitcast %union.anon.0* %368 to i8*, !dbg !1853
  %370 = load i8, i8* %369, align 8, !dbg !1853
  %371 = zext i8 %370 to i32, !dbg !1848
  %372 = ashr i32 %371, 1, !dbg !1854
  %373 = sext i32 %372 to i64, !dbg !1848
  br label %374, !dbg !1832

; <label>:374:                                    ; preds = %359, %348
  %375 = phi i64 [ %358, %348 ], [ %373, %359 ], !dbg !1832
  %376 = load i8*, i8** %36, align 8, !dbg !1855
  %377 = load i64, i64* %37, align 8, !dbg !1856
  %378 = load i8*, i8** %36, align 8, !dbg !1857
  %379 = invoke i64 @_ZNSt3__111char_traitsIcE6lengthEPKc(i8* %378)
          to label %380 unwind label %433, !dbg !1858

; <label>:380:                                    ; preds = %374
  store i8* %332, i8** %12, align 8, !dbg !1859
  store i64 %375, i64* %13, align 8, !dbg !1859
  store i8* %376, i8** %14, align 8, !dbg !1859
  store i64 %377, i64* %15, align 8, !dbg !1859
  store i64 %379, i64* %16, align 8, !dbg !1859
  %381 = load i64, i64* %15, align 8, !dbg !1860
  %382 = load i64, i64* %13, align 8, !dbg !1861
  %383 = icmp ugt i64 %381, %382, !dbg !1862
  br i1 %383, label %390, label %384, !dbg !1863

; <label>:384:                                    ; preds = %380
  %385 = load i64, i64* %13, align 8, !dbg !1864
  %386 = load i64, i64* %15, align 8, !dbg !1865
  %387 = sub i64 %385, %386, !dbg !1866
  %388 = load i64, i64* %16, align 8, !dbg !1867
  %389 = icmp ult i64 %387, %388, !dbg !1868
  br i1 %389, label %390, label %391, !dbg !1869

; <label>:390:                                    ; preds = %384, %380
  store i64 -1, i64* %11, align 8, !dbg !1870
  br label %438, !dbg !1870

; <label>:391:                                    ; preds = %384
  %392 = load i64, i64* %16, align 8, !dbg !1871
  %393 = icmp eq i64 %392, 0, !dbg !1872
  br i1 %393, label %394, label %396, !dbg !1873

; <label>:394:                                    ; preds = %391
  %395 = load i64, i64* %15, align 8, !dbg !1874
  store i64 %395, i64* %11, align 8, !dbg !1875
  br label %438, !dbg !1875

; <label>:396:                                    ; preds = %391
  %397 = load i8*, i8** %12, align 8, !dbg !1876
  %398 = load i64, i64* %15, align 8, !dbg !1877
  %399 = getelementptr inbounds i8, i8* %397, i64 %398, !dbg !1878
  %400 = load i8*, i8** %12, align 8, !dbg !1879
  %401 = load i64, i64* %13, align 8, !dbg !1880
  %402 = getelementptr inbounds i8, i8* %400, i64 %401, !dbg !1881
  %403 = load i8*, i8** %14, align 8, !dbg !1882
  %404 = load i8*, i8** %14, align 8, !dbg !1883
  %405 = load i64, i64* %16, align 8, !dbg !1884
  %406 = getelementptr inbounds i8, i8* %404, i64 %405, !dbg !1885
  %407 = invoke { i8*, i8* } @_ZNSt3__18__searchIPFbccEPKcS4_EENS_4pairIT0_S6_EES6_S6_T1_S8_T_NS_26random_access_iterator_tagESA_(i8* %399, i8* %402, i8* %403, i8* %406, i1 (i8, i8)* @_ZNSt3__111char_traitsIcE2eqEcc)
          to label %408 unwind label %422, !dbg !1886

; <label>:408:                                    ; preds = %396
  %409 = bitcast %"struct.std::__1::pair"* %20 to { i8*, i8* }*, !dbg !1886
  %410 = getelementptr inbounds { i8*, i8* }, { i8*, i8* }* %409, i32 0, i32 0, !dbg !1886
  %411 = extractvalue { i8*, i8* } %407, 0, !dbg !1886
  store i8* %411, i8** %410, align 8, !dbg !1886
  %412 = getelementptr inbounds { i8*, i8* }, { i8*, i8* }* %409, i32 0, i32 1, !dbg !1886
  %413 = extractvalue { i8*, i8* } %407, 1, !dbg !1886
  store i8* %413, i8** %412, align 8, !dbg !1886
  %414 = getelementptr inbounds %"struct.std::__1::pair", %"struct.std::__1::pair"* %20, i32 0, i32 0, !dbg !1887
  %415 = load i8*, i8** %414, align 8, !dbg !1887
  store i8* %415, i8** %17, align 8, !dbg !1482
  %416 = load i8*, i8** %17, align 8, !dbg !1888
  %417 = load i8*, i8** %12, align 8, !dbg !1889
  %418 = load i64, i64* %13, align 8, !dbg !1890
  %419 = getelementptr inbounds i8, i8* %417, i64 %418, !dbg !1891
  %420 = icmp eq i8* %416, %419, !dbg !1892
  br i1 %420, label %421, label %427, !dbg !1893

; <label>:421:                                    ; preds = %408
  store i64 -1, i64* %11, align 8, !dbg !1894
  br label %438, !dbg !1894

; <label>:422:                                    ; preds = %396
  %423 = landingpad { i8*, i32 }
          filter [0 x i8*] zeroinitializer, !dbg !1895
  %424 = extractvalue { i8*, i32 } %423, 0, !dbg !1895
  store i8* %424, i8** %18, align 8, !dbg !1895
  %425 = extractvalue { i8*, i32 } %423, 1, !dbg !1895
  store i32 %425, i32* %19, align 4, !dbg !1895
  %426 = load i8*, i8** %18, align 8, !dbg !1895
  call void @__cxa_call_unexpected(i8* %426) #8, !dbg !1895
  unreachable, !dbg !1895

; <label>:427:                                    ; preds = %408
  %428 = load i8*, i8** %17, align 8, !dbg !1896
  %429 = load i8*, i8** %12, align 8, !dbg !1897
  %430 = ptrtoint i8* %428 to i64, !dbg !1898
  %431 = ptrtoint i8* %429 to i64, !dbg !1898
  %432 = sub i64 %430, %431, !dbg !1898
  store i64 %432, i64* %11, align 8, !dbg !1899
  br label %438, !dbg !1899

; <label>:433:                                    ; preds = %374
  %434 = landingpad { i8*, i32 }
          filter [0 x i8*] zeroinitializer, !dbg !1900
  %435 = extractvalue { i8*, i32 } %434, 0, !dbg !1900
  store i8* %435, i8** %38, align 8, !dbg !1900
  %436 = extractvalue { i8*, i32 } %434, 1, !dbg !1900
  store i32 %436, i32* %39, align 4, !dbg !1900
  %437 = load i8*, i8** %38, align 8, !dbg !1901
  call void @__cxa_call_unexpected(i8* %437) #8, !dbg !1901
  unreachable, !dbg !1901

; <label>:438:                                    ; preds = %390, %394, %421, %427
  %439 = load i64, i64* %11, align 8, !dbg !1895
  %440 = icmp ne i64 %439, -1, !dbg !1902
  br i1 %440, label %441, label %452, !dbg !1903

; <label>:441:                                    ; preds = %438, %285
  %442 = invoke i32 (i8*, ...) @printf(i8* getelementptr inbounds ([13 x i8], [13 x i8]* @.str.2, i32 0, i32 0))
          to label %443 unwind label %448, !dbg !1904

; <label>:443:                                    ; preds = %441
  store i1 true, i1* %95, align 1, !dbg !1906
  store i32 1, i32* %100, align 4
  br label %455, !dbg !1906

; <label>:444:                                    ; preds = %133, %0, %455
  %445 = landingpad { i8*, i32 }
          cleanup, !dbg !1907
  %446 = extractvalue { i8*, i32 } %445, 0, !dbg !1907
  store i8* %446, i8** %98, align 8, !dbg !1907
  %447 = extractvalue { i8*, i32 } %445, 1, !dbg !1907
  store i32 %447, i32* %99, align 4, !dbg !1907
  br label %459, !dbg !1907

; <label>:448:                                    ; preds = %452, %441
  %449 = landingpad { i8*, i32 }
          cleanup, !dbg !1908
  %450 = extractvalue { i8*, i32 } %449, 0, !dbg !1908
  store i8* %450, i8** %98, align 8, !dbg !1908
  %451 = extractvalue { i8*, i32 } %449, 1, !dbg !1908
  store i32 %451, i32* %99, align 4, !dbg !1908
  invoke void @_ZNSt3__112basic_stringIcNS_11char_traitsIcEENS_9allocatorIcEEED1Ev(%"class.std::__1::basic_string"* %97)
          to label %458 unwind label %466, !dbg !1907

; <label>:452:                                    ; preds = %438
  %453 = invoke i32 (i8*, ...) @printf(i8* getelementptr inbounds ([14 x i8], [14 x i8]* @.str.3, i32 0, i32 0))
          to label %454 unwind label %448, !dbg !1909

; <label>:454:                                    ; preds = %452
  store i1 false, i1* %95, align 1, !dbg !1911
  store i32 1, i32* %100, align 4
  br label %455, !dbg !1911

; <label>:455:                                    ; preds = %454, %443
  invoke void @_ZNSt3__112basic_stringIcNS_11char_traitsIcEENS_9allocatorIcEEED1Ev(%"class.std::__1::basic_string"* %97)
          to label %456 unwind label %444, !dbg !1907

; <label>:456:                                    ; preds = %455
  call void @_ZNSt3__112basic_stringIcNS_11char_traitsIcEENS_9allocatorIcEEED1Ev(%"class.std::__1::basic_string"* %96), !dbg !1907
  %457 = load i1, i1* %95, align 1, !dbg !1907
  ret i1 %457, !dbg !1907

; <label>:458:                                    ; preds = %448
  br label %459, !dbg !1907

; <label>:459:                                    ; preds = %458, %444
  invoke void @_ZNSt3__112basic_stringIcNS_11char_traitsIcEENS_9allocatorIcEEED1Ev(%"class.std::__1::basic_string"* %96)
          to label %460 unwind label %466, !dbg !1907

; <label>:460:                                    ; preds = %459
  br label %461, !dbg !1907

; <label>:461:                                    ; preds = %460
  %462 = load i8*, i8** %98, align 8, !dbg !1907
  %463 = load i32, i32* %99, align 4, !dbg !1907
  %464 = insertvalue { i8*, i32 } undef, i8* %462, 0, !dbg !1907
  %465 = insertvalue { i8*, i32 } %464, i32 %463, 1, !dbg !1907
  resume { i8*, i32 } %465, !dbg !1907

; <label>:466:                                    ; preds = %459, %448
  %467 = landingpad { i8*, i32 }
          catch i8* null, !dbg !1907
  %468 = extractvalue { i8*, i32 } %467, 0, !dbg !1907
  call void @__clang_call_terminate(i8* %468) #8, !dbg !1907
  unreachable, !dbg !1907
}

; Function Attrs: nounwind readnone
declare void @llvm.dbg.declare(metadata, metadata, metadata) #1

declare i32 @__gxx_personality_v0(...)

declare i32 @printf(i8*, ...) #2

declare void @_ZNSt3__112basic_stringIcNS_11char_traitsIcEENS_9allocatorIcEEED1Ev(%"class.std::__1::basic_string"*) unnamed_addr #2

; Function Attrs: noinline noreturn nounwind
define linkonce_odr hidden void @__clang_call_terminate(i8*) #3 {
  %2 = call i8* @__cxa_begin_catch(i8* %0) #7
  call void @_ZSt9terminatev() #8
  unreachable
}

declare i8* @__cxa_begin_catch(i8*)

declare void @_ZSt9terminatev()

; Function Attrs: ssp uwtable
define i32 @_Z25test_OR_operator_with_CPPv() #0 !dbg !1912 {
  %1 = alloca i8, align 1
  call void @llvm.dbg.declare(metadata i8* %1, metadata !1913, metadata !1428), !dbg !1914
  %2 = call zeroext i1 @_Z27testee_OR_operator_with_CPPv(), !dbg !1915
  %3 = zext i1 %2 to i8, !dbg !1914
  store i8 %3, i8* %1, align 1, !dbg !1914
  %4 = load i8, i8* %1, align 1, !dbg !1916
  %5 = trunc i8 %4 to i1, !dbg !1916
  %6 = zext i1 %5 to i32, !dbg !1916
  %7 = icmp eq i32 %6, 1, !dbg !1917
  %8 = zext i1 %7 to i32, !dbg !1916
  ret i32 %8, !dbg !1918
}

declare void @_ZNSt3__112basic_stringIcNS_11char_traitsIcEENS_9allocatorIcEEE6__initEPKcm(%"class.std::__1::basic_string"*, i8*, i64) #2

; Function Attrs: inlinehint ssp uwtable
define linkonce_odr i64 @_ZNSt3__111char_traitsIcE6lengthEPKc(i8*) #4 align 2 !dbg !1919 {
  %2 = alloca i8*, align 8
  store i8* %0, i8** %2, align 8
  call void @llvm.dbg.declare(metadata i8** %2, metadata !1920, metadata !1428), !dbg !1921
  %3 = load i8*, i8** %2, align 8, !dbg !1922
  %4 = call i64 @strlen(i8* %3), !dbg !1923
  ret i64 %4, !dbg !1924
}

; Function Attrs: argmemonly nounwind
declare void @llvm.memset.p0i8.i64(i8* nocapture writeonly, i8, i64, i32, i1) #5

declare i64 @strlen(i8*) #2

declare void @__cxa_call_unexpected(i8*)

; Function Attrs: ssp uwtable
define linkonce_odr { i8*, i8* } @_ZNSt3__18__searchIPFbccEPKcS4_EENS_4pairIT0_S6_EES6_S6_T1_S8_T_NS_26random_access_iterator_tagESA_(i8*, i8*, i8*, i8*, i1 (i8, i8)*) #0 !dbg !1925 {
  %6 = alloca %"struct.std::__1::pair"*, align 8
  call void @llvm.dbg.declare(metadata %"struct.std::__1::pair"** %6, metadata !1972, metadata !1428), !dbg !1975
  %7 = alloca i8**, align 8
  call void @llvm.dbg.declare(metadata i8*** %7, metadata !1986, metadata !1428), !dbg !1987
  %8 = alloca i8**, align 8
  call void @llvm.dbg.declare(metadata i8*** %8, metadata !1988, metadata !1428), !dbg !1989
  %9 = alloca %"struct.std::__1::pair"*, align 8
  call void @llvm.dbg.declare(metadata %"struct.std::__1::pair"** %9, metadata !1990, metadata !1428), !dbg !1991
  %10 = alloca i8**, align 8
  call void @llvm.dbg.declare(metadata i8*** %10, metadata !1992, metadata !1428), !dbg !1993
  %11 = alloca i8**, align 8
  call void @llvm.dbg.declare(metadata i8*** %11, metadata !1994, metadata !1428), !dbg !1995
  %12 = alloca %"struct.std::__1::pair", align 8
  %13 = alloca i8*, align 8
  call void @llvm.dbg.declare(metadata i8** %13, metadata !1996, metadata !1428), !dbg !1997
  %14 = alloca i8*, align 8
  call void @llvm.dbg.declare(metadata i8** %14, metadata !1998, metadata !1428), !dbg !1999
  %15 = alloca %"struct.std::__1::pair"*, align 8
  call void @llvm.dbg.declare(metadata %"struct.std::__1::pair"** %15, metadata !1972, metadata !1428), !dbg !2000
  %16 = alloca i8**, align 8
  call void @llvm.dbg.declare(metadata i8*** %16, metadata !1986, metadata !1428), !dbg !2006
  %17 = alloca i8**, align 8
  call void @llvm.dbg.declare(metadata i8*** %17, metadata !1988, metadata !1428), !dbg !2007
  %18 = alloca %"struct.std::__1::pair"*, align 8
  call void @llvm.dbg.declare(metadata %"struct.std::__1::pair"** %18, metadata !1990, metadata !1428), !dbg !2008
  %19 = alloca i8**, align 8
  call void @llvm.dbg.declare(metadata i8*** %19, metadata !1992, metadata !1428), !dbg !2009
  %20 = alloca i8**, align 8
  call void @llvm.dbg.declare(metadata i8*** %20, metadata !1994, metadata !1428), !dbg !2010
  %21 = alloca %"struct.std::__1::pair", align 8
  %22 = alloca i8*, align 8
  call void @llvm.dbg.declare(metadata i8** %22, metadata !1996, metadata !1428), !dbg !2011
  %23 = alloca i8*, align 8
  call void @llvm.dbg.declare(metadata i8** %23, metadata !1998, metadata !1428), !dbg !2012
  %24 = alloca %"struct.std::__1::pair"*, align 8
  call void @llvm.dbg.declare(metadata %"struct.std::__1::pair"** %24, metadata !1972, metadata !1428), !dbg !2013
  %25 = alloca i8**, align 8
  call void @llvm.dbg.declare(metadata i8*** %25, metadata !1986, metadata !1428), !dbg !2018
  %26 = alloca i8**, align 8
  call void @llvm.dbg.declare(metadata i8*** %26, metadata !1988, metadata !1428), !dbg !2019
  %27 = alloca %"struct.std::__1::pair"*, align 8
  call void @llvm.dbg.declare(metadata %"struct.std::__1::pair"** %27, metadata !1990, metadata !1428), !dbg !2020
  %28 = alloca i8**, align 8
  call void @llvm.dbg.declare(metadata i8*** %28, metadata !1992, metadata !1428), !dbg !2021
  %29 = alloca i8**, align 8
  call void @llvm.dbg.declare(metadata i8*** %29, metadata !1994, metadata !1428), !dbg !2022
  %30 = alloca %"struct.std::__1::pair", align 8
  %31 = alloca i8*, align 8
  call void @llvm.dbg.declare(metadata i8** %31, metadata !1996, metadata !1428), !dbg !2023
  %32 = alloca i8*, align 8
  call void @llvm.dbg.declare(metadata i8** %32, metadata !1998, metadata !1428), !dbg !2024
  %33 = alloca %"struct.std::__1::pair"*, align 8
  call void @llvm.dbg.declare(metadata %"struct.std::__1::pair"** %33, metadata !1972, metadata !1428), !dbg !2025
  %34 = alloca i8**, align 8
  call void @llvm.dbg.declare(metadata i8*** %34, metadata !1986, metadata !1428), !dbg !2030
  %35 = alloca i8**, align 8
  call void @llvm.dbg.declare(metadata i8*** %35, metadata !1988, metadata !1428), !dbg !2031
  %36 = alloca %"struct.std::__1::pair"*, align 8
  call void @llvm.dbg.declare(metadata %"struct.std::__1::pair"** %36, metadata !1990, metadata !1428), !dbg !2032
  %37 = alloca i8**, align 8
  call void @llvm.dbg.declare(metadata i8*** %37, metadata !1992, metadata !1428), !dbg !2033
  %38 = alloca i8**, align 8
  call void @llvm.dbg.declare(metadata i8*** %38, metadata !1994, metadata !1428), !dbg !2034
  %39 = alloca %"struct.std::__1::pair", align 8
  %40 = alloca i8*, align 8
  call void @llvm.dbg.declare(metadata i8** %40, metadata !1996, metadata !1428), !dbg !2035
  %41 = alloca i8*, align 8
  call void @llvm.dbg.declare(metadata i8** %41, metadata !1998, metadata !1428), !dbg !2036
  %42 = alloca %"struct.std::__1::pair", align 8
  %43 = alloca %"struct.std::__1::random_access_iterator_tag", align 1
  %44 = alloca %"struct.std::__1::random_access_iterator_tag", align 1
  %45 = alloca i8*, align 8
  %46 = alloca i8*, align 8
  %47 = alloca i8*, align 8
  %48 = alloca i8*, align 8
  %49 = alloca i1 (i8, i8)*, align 8
  %50 = alloca i64, align 8
  %51 = alloca i64, align 8
  %52 = alloca i8*, align 8
  %53 = alloca i8*, align 8
  %54 = alloca i8*, align 8
  store i8* %0, i8** %45, align 8
  call void @llvm.dbg.declare(metadata i8** %45, metadata !2037, metadata !1428), !dbg !2038
  store i8* %1, i8** %46, align 8
  call void @llvm.dbg.declare(metadata i8** %46, metadata !2039, metadata !1428), !dbg !2040
  store i8* %2, i8** %47, align 8
  call void @llvm.dbg.declare(metadata i8** %47, metadata !2041, metadata !1428), !dbg !2042
  store i8* %3, i8** %48, align 8
  call void @llvm.dbg.declare(metadata i8** %48, metadata !2043, metadata !1428), !dbg !2044
  store i1 (i8, i8)* %4, i1 (i8, i8)** %49, align 8
  call void @llvm.dbg.declare(metadata i1 (i8, i8)** %49, metadata !2045, metadata !1428), !dbg !2046
  call void @llvm.dbg.declare(metadata %"struct.std::__1::random_access_iterator_tag"* %43, metadata !2047, metadata !1428), !dbg !2048
  call void @llvm.dbg.declare(metadata %"struct.std::__1::random_access_iterator_tag"* %44, metadata !2049, metadata !1428), !dbg !2050
  call void @llvm.dbg.declare(metadata i64* %50, metadata !2051, metadata !1428), !dbg !2058
  %55 = load i8*, i8** %48, align 8, !dbg !2059
  %56 = load i8*, i8** %47, align 8, !dbg !2060
  %57 = ptrtoint i8* %55 to i64, !dbg !2061
  %58 = ptrtoint i8* %56 to i64, !dbg !2061
  %59 = sub i64 %57, %58, !dbg !2061
  store i64 %59, i64* %50, align 8, !dbg !2058
  %60 = load i64, i64* %50, align 8, !dbg !2062
  %61 = icmp eq i64 %60, 0, !dbg !2063
  br i1 %61, label %62, label %82, !dbg !2064

; <label>:62:                                     ; preds = %5
  %63 = load i8*, i8** %45, align 8, !dbg !2065
  %64 = load i8*, i8** %45, align 8, !dbg !2066
  store i8* %63, i8** %40, align 8, !dbg !2067
  store i8* %64, i8** %41, align 8, !dbg !2067
  store %"struct.std::__1::pair"* %39, %"struct.std::__1::pair"** %36, align 8, !dbg !2068
  store i8** %40, i8*** %37, align 8, !dbg !2068
  store i8** %41, i8*** %38, align 8, !dbg !2068
  %65 = load %"struct.std::__1::pair"*, %"struct.std::__1::pair"** %36, align 8, !dbg !2068
  %66 = load i8**, i8*** %37, align 8, !dbg !2069
  %67 = load i8**, i8*** %38, align 8, !dbg !2069
  store %"struct.std::__1::pair"* %65, %"struct.std::__1::pair"** %33, align 8, !dbg !2069
  store i8** %66, i8*** %34, align 8, !dbg !2069
  store i8** %67, i8*** %35, align 8, !dbg !2069
  %68 = load %"struct.std::__1::pair"*, %"struct.std::__1::pair"** %33, align 8, !dbg !2069
  %69 = getelementptr inbounds %"struct.std::__1::pair", %"struct.std::__1::pair"* %68, i32 0, i32 0, !dbg !2070
  %70 = load i8**, i8*** %34, align 8, !dbg !2071
  %71 = load i8*, i8** %70, align 8, !dbg !2071
  store i8* %71, i8** %69, align 8, !dbg !2070
  %72 = getelementptr inbounds %"struct.std::__1::pair", %"struct.std::__1::pair"* %68, i32 0, i32 1, !dbg !2072
  %73 = load i8**, i8*** %35, align 8, !dbg !2073
  %74 = load i8*, i8** %73, align 8, !dbg !2073
  store i8* %74, i8** %72, align 8, !dbg !2072
  %75 = bitcast %"struct.std::__1::pair"* %39 to { i8*, i8* }*, !dbg !2074
  %76 = load { i8*, i8* }, { i8*, i8* }* %75, align 8, !dbg !2074
  %77 = bitcast %"struct.std::__1::pair"* %42 to { i8*, i8* }*, !dbg !2067
  %78 = getelementptr inbounds { i8*, i8* }, { i8*, i8* }* %77, i32 0, i32 0, !dbg !2067
  %79 = extractvalue { i8*, i8* } %76, 0, !dbg !2067
  store i8* %79, i8** %78, align 8, !dbg !2067
  %80 = getelementptr inbounds { i8*, i8* }, { i8*, i8* }* %77, i32 0, i32 1, !dbg !2067
  %81 = extractvalue { i8*, i8* } %76, 1, !dbg !2067
  store i8* %81, i8** %80, align 8, !dbg !2067
  br label %197, !dbg !2075

; <label>:82:                                     ; preds = %5
  call void @llvm.dbg.declare(metadata i64* %51, metadata !2076, metadata !1428), !dbg !2079
  %83 = load i8*, i8** %46, align 8, !dbg !2080
  %84 = load i8*, i8** %45, align 8, !dbg !2081
  %85 = ptrtoint i8* %83 to i64, !dbg !2082
  %86 = ptrtoint i8* %84 to i64, !dbg !2082
  %87 = sub i64 %85, %86, !dbg !2082
  store i64 %87, i64* %51, align 8, !dbg !2079
  %88 = load i64, i64* %51, align 8, !dbg !2083
  %89 = load i64, i64* %50, align 8, !dbg !2084
  %90 = icmp slt i64 %88, %89, !dbg !2085
  br i1 %90, label %91, label %111, !dbg !2086

; <label>:91:                                     ; preds = %82
  %92 = load i8*, i8** %46, align 8, !dbg !2087
  %93 = load i8*, i8** %46, align 8, !dbg !2088
  store i8* %92, i8** %31, align 8, !dbg !2089
  store i8* %93, i8** %32, align 8, !dbg !2089
  store %"struct.std::__1::pair"* %30, %"struct.std::__1::pair"** %27, align 8, !dbg !2090
  store i8** %31, i8*** %28, align 8, !dbg !2090
  store i8** %32, i8*** %29, align 8, !dbg !2090
  %94 = load %"struct.std::__1::pair"*, %"struct.std::__1::pair"** %27, align 8, !dbg !2090
  %95 = load i8**, i8*** %28, align 8, !dbg !2091
  %96 = load i8**, i8*** %29, align 8, !dbg !2091
  store %"struct.std::__1::pair"* %94, %"struct.std::__1::pair"** %24, align 8, !dbg !2091
  store i8** %95, i8*** %25, align 8, !dbg !2091
  store i8** %96, i8*** %26, align 8, !dbg !2091
  %97 = load %"struct.std::__1::pair"*, %"struct.std::__1::pair"** %24, align 8, !dbg !2091
  %98 = getelementptr inbounds %"struct.std::__1::pair", %"struct.std::__1::pair"* %97, i32 0, i32 0, !dbg !2092
  %99 = load i8**, i8*** %25, align 8, !dbg !2093
  %100 = load i8*, i8** %99, align 8, !dbg !2093
  store i8* %100, i8** %98, align 8, !dbg !2092
  %101 = getelementptr inbounds %"struct.std::__1::pair", %"struct.std::__1::pair"* %97, i32 0, i32 1, !dbg !2094
  %102 = load i8**, i8*** %26, align 8, !dbg !2095
  %103 = load i8*, i8** %102, align 8, !dbg !2095
  store i8* %103, i8** %101, align 8, !dbg !2094
  %104 = bitcast %"struct.std::__1::pair"* %30 to { i8*, i8* }*, !dbg !2096
  %105 = load { i8*, i8* }, { i8*, i8* }* %104, align 8, !dbg !2096
  %106 = bitcast %"struct.std::__1::pair"* %42 to { i8*, i8* }*, !dbg !2089
  %107 = getelementptr inbounds { i8*, i8* }, { i8*, i8* }* %106, i32 0, i32 0, !dbg !2089
  %108 = extractvalue { i8*, i8* } %105, 0, !dbg !2089
  store i8* %108, i8** %107, align 8, !dbg !2089
  %109 = getelementptr inbounds { i8*, i8* }, { i8*, i8* }* %106, i32 0, i32 1, !dbg !2089
  %110 = extractvalue { i8*, i8* } %105, 1, !dbg !2089
  store i8* %110, i8** %109, align 8, !dbg !2089
  br label %197, !dbg !2097

; <label>:111:                                    ; preds = %82
  call void @llvm.dbg.declare(metadata i8** %52, metadata !2098, metadata !1428), !dbg !2099
  %112 = load i8*, i8** %46, align 8, !dbg !2100
  %113 = load i64, i64* %50, align 8, !dbg !2101
  %114 = sub nsw i64 %113, 1, !dbg !2102
  %115 = sub i64 0, %114, !dbg !2103
  %116 = getelementptr inbounds i8, i8* %112, i64 %115, !dbg !2103
  store i8* %116, i8** %52, align 8, !dbg !2099
  br label %117, !dbg !2104

; <label>:117:                                    ; preds = %111, %196
  br label %118, !dbg !2105

; <label>:118:                                    ; preds = %117, %150
  %119 = load i8*, i8** %45, align 8, !dbg !2106
  %120 = load i8*, i8** %52, align 8, !dbg !2107
  %121 = icmp eq i8* %119, %120, !dbg !2108
  br i1 %121, label %122, label %142, !dbg !2109

; <label>:122:                                    ; preds = %118
  %123 = load i8*, i8** %46, align 8, !dbg !2110
  %124 = load i8*, i8** %46, align 8, !dbg !2111
  store i8* %123, i8** %13, align 8, !dbg !2112
  store i8* %124, i8** %14, align 8, !dbg !2112
  store %"struct.std::__1::pair"* %12, %"struct.std::__1::pair"** %9, align 8, !dbg !2113
  store i8** %13, i8*** %10, align 8, !dbg !2113
  store i8** %14, i8*** %11, align 8, !dbg !2113
  %125 = load %"struct.std::__1::pair"*, %"struct.std::__1::pair"** %9, align 8, !dbg !2113
  %126 = load i8**, i8*** %10, align 8, !dbg !2114
  %127 = load i8**, i8*** %11, align 8, !dbg !2114
  store %"struct.std::__1::pair"* %125, %"struct.std::__1::pair"** %6, align 8, !dbg !2114
  store i8** %126, i8*** %7, align 8, !dbg !2114
  store i8** %127, i8*** %8, align 8, !dbg !2114
  %128 = load %"struct.std::__1::pair"*, %"struct.std::__1::pair"** %6, align 8, !dbg !2114
  %129 = getelementptr inbounds %"struct.std::__1::pair", %"struct.std::__1::pair"* %128, i32 0, i32 0, !dbg !2115
  %130 = load i8**, i8*** %7, align 8, !dbg !2116
  %131 = load i8*, i8** %130, align 8, !dbg !2116
  store i8* %131, i8** %129, align 8, !dbg !2115
  %132 = getelementptr inbounds %"struct.std::__1::pair", %"struct.std::__1::pair"* %128, i32 0, i32 1, !dbg !2117
  %133 = load i8**, i8*** %8, align 8, !dbg !2118
  %134 = load i8*, i8** %133, align 8, !dbg !2118
  store i8* %134, i8** %132, align 8, !dbg !2117
  %135 = bitcast %"struct.std::__1::pair"* %12 to { i8*, i8* }*, !dbg !2119
  %136 = load { i8*, i8* }, { i8*, i8* }* %135, align 8, !dbg !2119
  %137 = bitcast %"struct.std::__1::pair"* %42 to { i8*, i8* }*, !dbg !2112
  %138 = getelementptr inbounds { i8*, i8* }, { i8*, i8* }* %137, i32 0, i32 0, !dbg !2112
  %139 = extractvalue { i8*, i8* } %136, 0, !dbg !2112
  store i8* %139, i8** %138, align 8, !dbg !2112
  %140 = getelementptr inbounds { i8*, i8* }, { i8*, i8* }* %137, i32 0, i32 1, !dbg !2112
  %141 = extractvalue { i8*, i8* } %136, 1, !dbg !2112
  store i8* %141, i8** %140, align 8, !dbg !2112
  br label %197, !dbg !2120

; <label>:142:                                    ; preds = %118
  %143 = load i1 (i8, i8)*, i1 (i8, i8)** %49, align 8, !dbg !2121
  %144 = load i8*, i8** %45, align 8, !dbg !2123
  %145 = load i8, i8* %144, align 1, !dbg !2124
  %146 = load i8*, i8** %47, align 8, !dbg !2125
  %147 = load i8, i8* %146, align 1, !dbg !2126
  %148 = call zeroext i1 %143(i8 signext %145, i8 signext %147), !dbg !2121
  br i1 %148, label %149, label %150, !dbg !2127

; <label>:149:                                    ; preds = %142
  br label %153, !dbg !2128

; <label>:150:                                    ; preds = %142
  %151 = load i8*, i8** %45, align 8, !dbg !2129
  %152 = getelementptr inbounds i8, i8* %151, i32 1, !dbg !2129
  store i8* %152, i8** %45, align 8, !dbg !2129
  br label %118, !dbg !2105, !llvm.loop !2130

; <label>:153:                                    ; preds = %149
  call void @llvm.dbg.declare(metadata i8** %53, metadata !2131, metadata !1428), !dbg !2132
  %154 = load i8*, i8** %45, align 8, !dbg !2133
  store i8* %154, i8** %53, align 8, !dbg !2132
  call void @llvm.dbg.declare(metadata i8** %54, metadata !2134, metadata !1428), !dbg !2135
  %155 = load i8*, i8** %47, align 8, !dbg !2136
  store i8* %155, i8** %54, align 8, !dbg !2135
  br label %156, !dbg !2137

; <label>:156:                                    ; preds = %153, %195
  %157 = load i8*, i8** %54, align 8, !dbg !2138
  %158 = getelementptr inbounds i8, i8* %157, i32 1, !dbg !2138
  store i8* %158, i8** %54, align 8, !dbg !2138
  %159 = load i8*, i8** %48, align 8, !dbg !2139
  %160 = icmp eq i8* %158, %159, !dbg !2140
  br i1 %160, label %161, label %183, !dbg !2141

; <label>:161:                                    ; preds = %156
  %162 = load i8*, i8** %45, align 8, !dbg !2142
  %163 = load i8*, i8** %45, align 8, !dbg !2143
  %164 = load i64, i64* %50, align 8, !dbg !2144
  %165 = getelementptr inbounds i8, i8* %163, i64 %164, !dbg !2145
  store i8* %162, i8** %22, align 8, !dbg !2146
  store i8* %165, i8** %23, align 8, !dbg !2146
  store %"struct.std::__1::pair"* %21, %"struct.std::__1::pair"** %18, align 8, !dbg !2147
  store i8** %22, i8*** %19, align 8, !dbg !2147
  store i8** %23, i8*** %20, align 8, !dbg !2147
  %166 = load %"struct.std::__1::pair"*, %"struct.std::__1::pair"** %18, align 8, !dbg !2147
  %167 = load i8**, i8*** %19, align 8, !dbg !2148
  %168 = load i8**, i8*** %20, align 8, !dbg !2148
  store %"struct.std::__1::pair"* %166, %"struct.std::__1::pair"** %15, align 8, !dbg !2148
  store i8** %167, i8*** %16, align 8, !dbg !2148
  store i8** %168, i8*** %17, align 8, !dbg !2148
  %169 = load %"struct.std::__1::pair"*, %"struct.std::__1::pair"** %15, align 8, !dbg !2148
  %170 = getelementptr inbounds %"struct.std::__1::pair", %"struct.std::__1::pair"* %169, i32 0, i32 0, !dbg !2149
  %171 = load i8**, i8*** %16, align 8, !dbg !2150
  %172 = load i8*, i8** %171, align 8, !dbg !2150
  store i8* %172, i8** %170, align 8, !dbg !2149
  %173 = getelementptr inbounds %"struct.std::__1::pair", %"struct.std::__1::pair"* %169, i32 0, i32 1, !dbg !2151
  %174 = load i8**, i8*** %17, align 8, !dbg !2152
  %175 = load i8*, i8** %174, align 8, !dbg !2152
  store i8* %175, i8** %173, align 8, !dbg !2151
  %176 = bitcast %"struct.std::__1::pair"* %21 to { i8*, i8* }*, !dbg !2153
  %177 = load { i8*, i8* }, { i8*, i8* }* %176, align 8, !dbg !2153
  %178 = bitcast %"struct.std::__1::pair"* %42 to { i8*, i8* }*, !dbg !2146
  %179 = getelementptr inbounds { i8*, i8* }, { i8*, i8* }* %178, i32 0, i32 0, !dbg !2146
  %180 = extractvalue { i8*, i8* } %177, 0, !dbg !2146
  store i8* %180, i8** %179, align 8, !dbg !2146
  %181 = getelementptr inbounds { i8*, i8* }, { i8*, i8* }* %178, i32 0, i32 1, !dbg !2146
  %182 = extractvalue { i8*, i8* } %177, 1, !dbg !2146
  store i8* %182, i8** %181, align 8, !dbg !2146
  br label %197, !dbg !2154

; <label>:183:                                    ; preds = %156
  %184 = load i8*, i8** %53, align 8, !dbg !2155
  %185 = getelementptr inbounds i8, i8* %184, i32 1, !dbg !2155
  store i8* %185, i8** %53, align 8, !dbg !2155
  %186 = load i1 (i8, i8)*, i1 (i8, i8)** %49, align 8, !dbg !2156
  %187 = load i8*, i8** %53, align 8, !dbg !2158
  %188 = load i8, i8* %187, align 1, !dbg !2159
  %189 = load i8*, i8** %54, align 8, !dbg !2160
  %190 = load i8, i8* %189, align 1, !dbg !2161
  %191 = call zeroext i1 %186(i8 signext %188, i8 signext %190), !dbg !2156
  br i1 %191, label %195, label %192, !dbg !2162

; <label>:192:                                    ; preds = %183
  %193 = load i8*, i8** %45, align 8, !dbg !2163
  %194 = getelementptr inbounds i8, i8* %193, i32 1, !dbg !2163
  store i8* %194, i8** %45, align 8, !dbg !2163
  br label %196, !dbg !2165

; <label>:195:                                    ; preds = %183
  br label %156, !dbg !2137, !llvm.loop !2166

; <label>:196:                                    ; preds = %192
  br label %117, !dbg !2104, !llvm.loop !2167

; <label>:197:                                    ; preds = %161, %122, %91, %62
  %198 = bitcast %"struct.std::__1::pair"* %42 to { i8*, i8* }*, !dbg !2168
  %199 = load { i8*, i8* }, { i8*, i8* }* %198, align 8, !dbg !2168
  ret { i8*, i8* } %199, !dbg !2168
}

; Function Attrs: inlinehint nounwind ssp uwtable
define linkonce_odr zeroext i1 @_ZNSt3__111char_traitsIcE2eqEcc(i8 signext, i8 signext) #6 align 2 !dbg !2169 {
  %3 = alloca i8, align 1
  %4 = alloca i8, align 1
  store i8 %0, i8* %3, align 1
  call void @llvm.dbg.declare(metadata i8* %3, metadata !2170, metadata !1428), !dbg !2171
  store i8 %1, i8* %4, align 1
  call void @llvm.dbg.declare(metadata i8* %4, metadata !2172, metadata !1428), !dbg !2173
  %5 = load i8, i8* %3, align 1, !dbg !2174
  %6 = sext i8 %5 to i32, !dbg !2174
  %7 = load i8, i8* %4, align 1, !dbg !2175
  %8 = sext i8 %7 to i32, !dbg !2175
  %9 = icmp eq i32 %6, %8, !dbg !2176
  ret i1 %9, !dbg !2177
}

attributes #0 = { ssp uwtable "disable-tail-calls"="false" "less-precise-fpmad"="false" "no-frame-pointer-elim"="true" "no-frame-pointer-elim-non-leaf" "no-infs-fp-math"="false" "no-jump-tables"="false" "no-nans-fp-math"="false" "no-signed-zeros-fp-math"="false" "stack-protector-buffer-size"="8" "target-cpu"="core2" "target-features"="+cx16,+fxsr,+mmx,+sse,+sse2,+sse3,+ssse3,+x87" "unsafe-fp-math"="false" "use-soft-float"="false" }
attributes #1 = { nounwind readnone }
attributes #2 = { "disable-tail-calls"="false" "less-precise-fpmad"="false" "no-frame-pointer-elim"="true" "no-frame-pointer-elim-non-leaf" "no-infs-fp-math"="false" "no-nans-fp-math"="false" "no-signed-zeros-fp-math"="false" "stack-protector-buffer-size"="8" "target-cpu"="core2" "target-features"="+cx16,+fxsr,+mmx,+sse,+sse2,+sse3,+ssse3,+x87" "unsafe-fp-math"="false" "use-soft-float"="false" }
attributes #3 = { noinline noreturn nounwind }
attributes #4 = { inlinehint ssp uwtable "disable-tail-calls"="false" "less-precise-fpmad"="false" "no-frame-pointer-elim"="true" "no-frame-pointer-elim-non-leaf" "no-infs-fp-math"="false" "no-jump-tables"="false" "no-nans-fp-math"="false" "no-signed-zeros-fp-math"="false" "stack-protector-buffer-size"="8" "target-cpu"="core2" "target-features"="+cx16,+fxsr,+mmx,+sse,+sse2,+sse3,+ssse3,+x87" "unsafe-fp-math"="false" "use-soft-float"="false" }
attributes #5 = { argmemonly nounwind }
attributes #6 = { inlinehint nounwind ssp uwtable "disable-tail-calls"="false" "less-precise-fpmad"="false" "no-frame-pointer-elim"="true" "no-frame-pointer-elim-non-leaf" "no-infs-fp-math"="false" "no-jump-tables"="false" "no-nans-fp-math"="false" "no-signed-zeros-fp-math"="false" "stack-protector-buffer-size"="8" "target-cpu"="core2" "target-features"="+cx16,+fxsr,+mmx,+sse,+sse2,+sse3,+ssse3,+x87" "unsafe-fp-math"="false" "use-soft-float"="false" }
attributes #7 = { nounwind }
attributes #8 = { noreturn nounwind }

!llvm.dbg.cu = !{!0}
!llvm.module.flags = !{!1418, !1419, !1420}
!llvm.ident = !{!1421}

!0 = distinct !DICompileUnit(language: DW_LANG_C_plus_plus, file: !1, producer: "clang version 3.9.1 (tags/RELEASE_391/final)", isOptimized: false, runtimeVersion: 0, emissionKind: FullDebug, enums: !2, retainedTypes: !706, imports: !707)
!1 = !DIFile(filename: "test_and_or_operators.cpp", directory: "/usr/local/mull/mull/lab/simple_test/mutation_operators/and_or_replacement_cpp")
!2 = !{!3}
!3 = !DICompositeType(tag: DW_TAG_enumeration_type, scope: !5, file: !4, line: 1323, size: 32, align: 32, elements: !704, identifier: "_ZTSNSt3__112basic_stringIcNS_11char_traitsIcEENS_9allocatorIcEEEUt_E")
!4 = !DIFile(filename: "/usr/local/Cellar/llvm@3.9/3.9.1/bin/../include/c++/v1/string", directory: "/usr/local/mull/mull/lab/simple_test/mutation_operators/and_or_replacement_cpp")
!5 = distinct !DICompositeType(tag: DW_TAG_class_type, name: "basic_string<char, std::__1::char_traits<char>, std::__1::allocator<char> >", scope: !6, file: !4, line: 4310, size: 192, align: 64, elements: !9, templateParams: !701, identifier: "_ZTSNSt3__112basic_stringIcNS_11char_traitsIcEENS_9allocatorIcEEEE")
!6 = !DINamespace(name: "__1", scope: !8, file: !7, line: 454)
!7 = !DIFile(filename: "/usr/local/Cellar/llvm@3.9/3.9.1/bin/../include/c++/v1/__config", directory: "/usr/local/mull/mull/lab/simple_test/mutation_operators/and_or_replacement_cpp")
!8 = !DINamespace(name: "std", scope: null, file: !7, line: 453)
!9 = !{!10, !22, !365, !367, !371, !377, !382, !385, !390, !393, !396, !399, !402, !405, !408, !411, !412, !416, !419, !422, !428, !434, !435, !436, !441, !446, !447, !448, !449, !450, !451, !452, !455, !456, !457, !458, !459, !462, !463, !464, !465, !468, !473, !478, !479, !480, !481, !482, !483, !484, !487, !490, !491, !494, !497, !498, !501, !504, !505, !506, !507, !508, !509, !510, !511, !514, !517, !520, !523, !526, !529, !532, !535, !538, !541, !544, !547, !550, !553, !556, !559, !562, !565, !568, !572, !575, !578, !581, !582, !585, !588, !591, !594, !597, !598, !599, !600, !601, !602, !603, !604, !605, !606, !607, !608, !609, !610, !611, !612, !613, !614, !615, !616, !617, !620, !623, !626, !629, !632, !635, !636, !637, !641, !644, !645, !646, !647, !648, !649, !650, !651, !654, !657, !665, !666, !667, !668, !669, !670, !673, !676, !677, !678, !681, !684, !685, !686, !689, !692, !693, !696, !699, !700}
!10 = !DIDerivedType(tag: DW_TAG_inheritance, scope: !5, baseType: !11)
!11 = distinct !DICompositeType(tag: DW_TAG_class_type, name: "__basic_string_common<true>", scope: !6, file: !4, line: 1202, size: 8, align: 8, elements: !12, templateParams: !19, identifier: "_ZTSNSt3__121__basic_string_commonILb1EEE")
!12 = !{!13, !18}
!13 = !DISubprogram(name: "__throw_length_error", linkageName: "_ZNKSt3__121__basic_string_commonILb1EE20__throw_length_errorEv", scope: !11, file: !4, line: 1172, type: !14, isLocal: false, isDefinition: false, scopeLine: 1172, flags: DIFlagProtected | DIFlagPrototyped, isOptimized: false)
!14 = !DISubroutineType(types: !15)
!15 = !{null, !16}
!16 = !DIDerivedType(tag: DW_TAG_pointer_type, baseType: !17, size: 64, align: 64, flags: DIFlagArtificial | DIFlagObjectPointer)
!17 = !DIDerivedType(tag: DW_TAG_const_type, baseType: !11)
!18 = !DISubprogram(name: "__throw_out_of_range", linkageName: "_ZNKSt3__121__basic_string_commonILb1EE20__throw_out_of_rangeEv", scope: !11, file: !4, line: 1173, type: !14, isLocal: false, isDefinition: false, scopeLine: 1173, flags: DIFlagProtected | DIFlagPrototyped, isOptimized: false)
!19 = !{!20}
!20 = !DITemplateValueParameter(type: !21, value: i8 1)
!21 = !DIBasicType(name: "bool", size: 8, align: 8, encoding: DW_ATE_boolean)
!22 = !DIDerivedType(tag: DW_TAG_member, name: "__r_", scope: !5, file: !4, line: 1361, baseType: !23, size: 192, align: 64)
!23 = distinct !DICompositeType(tag: DW_TAG_class_type, name: "__compressed_pair<std::__1::basic_string<char, std::__1::char_traits<char>, std::__1::allocator<char> >::__rep, std::__1::allocator<char> >", scope: !6, file: !24, line: 2411, size: 192, align: 64, elements: !25, templateParams: !364, identifier: "_ZTSNSt3__117__compressed_pairINS_12basic_stringIcNS_11char_traitsIcEENS_9allocatorIcEEE5__repES5_EE")
!24 = !DIFile(filename: "/usr/local/Cellar/llvm@3.9/3.9.1/bin/../include/c++/v1/memory", directory: "/usr/local/mull/mull/lab/simple_test/mutation_operators/and_or_replacement_cpp")
!25 = !{!26, !327, !331, !335, !339, !342, !346, !352, !356, !360}
!26 = !DIDerivedType(tag: DW_TAG_inheritance, scope: !23, baseType: !27)
!27 = distinct !DICompositeType(tag: DW_TAG_class_type, name: "__libcpp_compressed_pair_imp<std::__1::basic_string<char, std::__1::char_traits<char>, std::__1::allocator<char> >::__rep, std::__1::allocator<char>, 2>", scope: !6, file: !24, line: 2231, size: 192, align: 64, elements: !28, templateParams: !322, identifier: "_ZTSNSt3__128__libcpp_compressed_pair_impINS_12basic_stringIcNS_11char_traitsIcEENS_9allocatorIcEEE5__repES5_Lj2EEE")
!28 = !{!29, !82, !276, !280, !284, !288, !291, !300, !308, !313, !318}
!29 = !DIDerivedType(tag: DW_TAG_inheritance, scope: !27, baseType: !30)
!30 = distinct !DICompositeType(tag: DW_TAG_class_type, name: "allocator<char>", scope: !6, file: !24, line: 1708, size: 8, align: 8, elements: !31, templateParams: !80, identifier: "_ZTSNSt3__19allocatorIcEE")
!31 = !{!32, !36, !46, !54, !70, !73, !76, !79}
!32 = !DISubprogram(name: "allocator", scope: !30, file: !24, line: 1724, type: !33, isLocal: false, isDefinition: false, scopeLine: 1724, flags: DIFlagPublic | DIFlagPrototyped, isOptimized: false)
!33 = !DISubroutineType(types: !34)
!34 = !{null, !35}
!35 = !DIDerivedType(tag: DW_TAG_pointer_type, baseType: !30, size: 64, align: 64, flags: DIFlagArtificial | DIFlagObjectPointer)
!36 = !DISubprogram(name: "address", linkageName: "_ZNKSt3__19allocatorIcE7addressERc", scope: !30, file: !24, line: 1726, type: !37, isLocal: false, isDefinition: false, scopeLine: 1726, flags: DIFlagPublic | DIFlagPrototyped, isOptimized: false)
!37 = !DISubroutineType(types: !38)
!38 = !{!39, !42, !44}
!39 = !DIDerivedType(tag: DW_TAG_typedef, name: "pointer", scope: !30, file: !24, line: 1713, baseType: !40)
!40 = !DIDerivedType(tag: DW_TAG_pointer_type, baseType: !41, size: 64, align: 64)
!41 = !DIBasicType(name: "char", size: 8, align: 8, encoding: DW_ATE_signed_char)
!42 = !DIDerivedType(tag: DW_TAG_pointer_type, baseType: !43, size: 64, align: 64, flags: DIFlagArtificial | DIFlagObjectPointer)
!43 = !DIDerivedType(tag: DW_TAG_const_type, baseType: !30)
!44 = !DIDerivedType(tag: DW_TAG_typedef, name: "reference", scope: !30, file: !24, line: 1715, baseType: !45)
!45 = !DIDerivedType(tag: DW_TAG_reference_type, baseType: !41, size: 64, align: 64)
!46 = !DISubprogram(name: "address", linkageName: "_ZNKSt3__19allocatorIcE7addressERKc", scope: !30, file: !24, line: 1728, type: !47, isLocal: false, isDefinition: false, scopeLine: 1728, flags: DIFlagPublic | DIFlagPrototyped, isOptimized: false)
!47 = !DISubroutineType(types: !48)
!48 = !{!49, !42, !52}
!49 = !DIDerivedType(tag: DW_TAG_typedef, name: "const_pointer", scope: !30, file: !24, line: 1714, baseType: !50)
!50 = !DIDerivedType(tag: DW_TAG_pointer_type, baseType: !51, size: 64, align: 64)
!51 = !DIDerivedType(tag: DW_TAG_const_type, baseType: !41)
!52 = !DIDerivedType(tag: DW_TAG_typedef, name: "const_reference", scope: !30, file: !24, line: 1716, baseType: !53)
!53 = !DIDerivedType(tag: DW_TAG_reference_type, baseType: !51, size: 64, align: 64)
!54 = !DISubprogram(name: "allocate", linkageName: "_ZNSt3__19allocatorIcE8allocateEmPKv", scope: !30, file: !24, line: 1730, type: !55, isLocal: false, isDefinition: false, scopeLine: 1730, flags: DIFlagPublic | DIFlagPrototyped, isOptimized: false)
!55 = !DISubroutineType(types: !56)
!56 = !{!39, !35, !57, !63}
!57 = !DIDerivedType(tag: DW_TAG_typedef, name: "size_type", file: !24, line: 1711, baseType: !58)
!58 = !DIDerivedType(tag: DW_TAG_typedef, name: "size_t", file: !59, line: 30, baseType: !60)
!59 = !DIFile(filename: "/usr/include/sys/_types/_size_t.h", directory: "/usr/local/mull/mull/lab/simple_test/mutation_operators/and_or_replacement_cpp")
!60 = !DIDerivedType(tag: DW_TAG_typedef, name: "__darwin_size_t", file: !61, line: 92, baseType: !62)
!61 = !DIFile(filename: "/usr/include/i386/_types.h", directory: "/usr/local/mull/mull/lab/simple_test/mutation_operators/and_or_replacement_cpp")
!62 = !DIBasicType(name: "long unsigned int", size: 64, align: 64, encoding: DW_ATE_unsigned)
!63 = !DIDerivedType(tag: DW_TAG_typedef, name: "const_pointer", scope: !64, file: !24, line: 651, baseType: !68)
!64 = distinct !DICompositeType(tag: DW_TAG_class_type, name: "allocator<void>", scope: !6, file: !24, line: 647, size: 8, align: 8, elements: !65, templateParams: !66, identifier: "_ZTSNSt3__19allocatorIvEE")
!65 = !{}
!66 = !{!67}
!67 = !DITemplateTypeParameter(name: "_Tp", type: null)
!68 = !DIDerivedType(tag: DW_TAG_pointer_type, baseType: !69, size: 64, align: 64)
!69 = !DIDerivedType(tag: DW_TAG_const_type, baseType: null)
!70 = !DISubprogram(name: "deallocate", linkageName: "_ZNSt3__19allocatorIcE10deallocateEPcm", scope: !30, file: !24, line: 1737, type: !71, isLocal: false, isDefinition: false, scopeLine: 1737, flags: DIFlagPublic | DIFlagPrototyped, isOptimized: false)
!71 = !DISubroutineType(types: !72)
!72 = !{null, !35, !39, !57}
!73 = !DISubprogram(name: "max_size", linkageName: "_ZNKSt3__19allocatorIcE8max_sizeEv", scope: !30, file: !24, line: 1739, type: !74, isLocal: false, isDefinition: false, scopeLine: 1739, flags: DIFlagPublic | DIFlagPrototyped, isOptimized: false)
!74 = !DISubroutineType(types: !75)
!75 = !{!57, !42}
!76 = !DISubprogram(name: "construct", linkageName: "_ZNSt3__19allocatorIcE9constructEPc", scope: !30, file: !24, line: 1752, type: !77, isLocal: false, isDefinition: false, scopeLine: 1752, flags: DIFlagPublic | DIFlagPrototyped, isOptimized: false)
!77 = !DISubroutineType(types: !78)
!78 = !{null, !35, !39}
!79 = !DISubprogram(name: "destroy", linkageName: "_ZNSt3__19allocatorIcE7destroyEPc", scope: !30, file: !24, line: 1802, type: !77, isLocal: false, isDefinition: false, scopeLine: 1802, flags: DIFlagPublic | DIFlagPrototyped, isOptimized: false)
!80 = !{!81}
!81 = !DITemplateTypeParameter(name: "_Tp", type: !41)
!82 = !DIDerivedType(tag: DW_TAG_member, name: "__first_", scope: !27, file: !24, line: 2235, baseType: !83, size: 192, align: 64)
!83 = distinct !DICompositeType(tag: DW_TAG_structure_type, name: "__rep", scope: !5, file: !4, line: 1351, size: 192, align: 64, elements: !84, identifier: "_ZTSNSt3__112basic_stringIcNS_11char_traitsIcEENS_9allocatorIcEEE5__repE")
!84 = !{!85}
!85 = !DIDerivedType(tag: DW_TAG_member, scope: !83, file: !4, line: 1353, baseType: !86, size: 192, align: 64)
!86 = distinct !DICompositeType(tag: DW_TAG_union_type, scope: !83, file: !4, line: 1353, size: 192, align: 64, elements: !87, identifier: "_ZTSNSt3__112basic_stringIcNS_11char_traitsIcEENS_9allocatorIcEEE5__repUt_E")
!87 = !{!88, !205, !269}
!88 = !DIDerivedType(tag: DW_TAG_member, name: "__l", scope: !86, file: !4, line: 1355, baseType: !89, size: 192, align: 64)
!89 = distinct !DICompositeType(tag: DW_TAG_structure_type, name: "__long", scope: !5, file: !4, line: 1312, size: 192, align: 64, elements: !90, identifier: "_ZTSNSt3__112basic_stringIcNS_11char_traitsIcEENS_9allocatorIcEEE6__longE")
!90 = !{!91, !202, !203}
!91 = !DIDerivedType(tag: DW_TAG_member, name: "__cap_", scope: !89, file: !4, line: 1314, baseType: !92, size: 64, align: 64)
!92 = !DIDerivedType(tag: DW_TAG_typedef, name: "size_type", scope: !5, file: !4, line: 1256, baseType: !93)
!93 = !DIDerivedType(tag: DW_TAG_typedef, name: "size_type", scope: !94, file: !24, line: 1466, baseType: !196)
!94 = distinct !DICompositeType(tag: DW_TAG_structure_type, name: "allocator_traits<std::__1::allocator<char> >", scope: !6, file: !24, line: 1455, size: 8, align: 8, elements: !95, templateParams: !195, identifier: "_ZTSNSt3__116allocator_traitsINS_9allocatorIcEEEE")
!95 = !{!96, !110, !140, !143, !148, !151, !168, !183, !186, !189, !192}
!96 = !DISubprogram(name: "allocate", linkageName: "_ZNSt3__116allocator_traitsINS_9allocatorIcEEE8allocateERS2_m", scope: !94, file: !24, line: 1489, type: !97, isLocal: false, isDefinition: false, scopeLine: 1489, flags: DIFlagPrototyped, isOptimized: false)
!97 = !DISubroutineType(types: !98)
!98 = !{!99, !108, !93}
!99 = !DIDerivedType(tag: DW_TAG_typedef, name: "pointer", scope: !94, file: !24, line: 1460, baseType: !100)
!100 = !DIDerivedType(tag: DW_TAG_typedef, name: "type", scope: !101, file: !24, line: 980, baseType: !104)
!101 = distinct !DICompositeType(tag: DW_TAG_structure_type, name: "__pointer_type<char, std::__1::allocator<char> >", scope: !6, file: !24, line: 978, size: 8, align: 8, elements: !65, templateParams: !102, identifier: "_ZTSNSt3__114__pointer_typeIcNS_9allocatorIcEEEE")
!102 = !{!81, !103}
!103 = !DITemplateTypeParameter(name: "_Dp", type: !30)
!104 = !DIDerivedType(tag: DW_TAG_typedef, name: "type", scope: !105, file: !24, line: 966, baseType: !39)
!105 = distinct !DICompositeType(tag: DW_TAG_structure_type, name: "__pointer_type<char, std::__1::allocator<char>, true>", scope: !106, file: !24, line: 964, size: 8, align: 8, elements: !65, templateParams: !107, identifier: "_ZTSNSt3__118__pointer_type_imp14__pointer_typeIcNS_9allocatorIcEELb1EEE")
!106 = !DINamespace(name: "__pointer_type_imp", scope: !6, file: !24, line: 960)
!107 = !{!81, !103, !20}
!108 = !DIDerivedType(tag: DW_TAG_reference_type, baseType: !109, size: 64, align: 64)
!109 = !DIDerivedType(tag: DW_TAG_typedef, name: "allocator_type", scope: !94, file: !24, line: 1457, baseType: !30)
!110 = !DISubprogram(name: "allocate", linkageName: "_ZNSt3__116allocator_traitsINS_9allocatorIcEEE8allocateERS2_mPKv", scope: !94, file: !24, line: 1492, type: !111, isLocal: false, isDefinition: false, scopeLine: 1492, flags: DIFlagPrototyped, isOptimized: false)
!111 = !DISubroutineType(types: !112)
!112 = !{!99, !108, !93, !113}
!113 = !DIDerivedType(tag: DW_TAG_typedef, name: "const_void_pointer", scope: !94, file: !24, line: 1463, baseType: !114)
!114 = !DIDerivedType(tag: DW_TAG_typedef, name: "type", scope: !115, file: !24, line: 1060, baseType: !120)
!115 = distinct !DICompositeType(tag: DW_TAG_structure_type, name: "__const_void_pointer<char *, std::__1::allocator<char>, false>", scope: !6, file: !24, line: 1055, size: 8, align: 8, elements: !65, templateParams: !116, identifier: "_ZTSNSt3__120__const_void_pointerIPcNS_9allocatorIcEELb0EEE")
!116 = !{!117, !118, !119}
!117 = !DITemplateTypeParameter(name: "_Ptr", type: !40)
!118 = !DITemplateTypeParameter(name: "_Alloc", type: !30)
!119 = !DITemplateValueParameter(type: !21, value: i8 0)
!120 = !DIDerivedType(tag: DW_TAG_typedef, name: "other", scope: !121, file: !24, line: 925, baseType: !68)
!121 = distinct !DICompositeType(tag: DW_TAG_structure_type, name: "rebind<const void>", scope: !122, file: !24, line: 925, size: 8, align: 8, elements: !65, templateParams: !138, identifier: "_ZTSNSt3__114pointer_traitsIPcE6rebindIKvEE")
!122 = distinct !DICompositeType(tag: DW_TAG_structure_type, name: "pointer_traits<char *>", scope: !6, file: !24, line: 916, size: 8, align: 8, elements: !123, templateParams: !137, identifier: "_ZTSNSt3__114pointer_traitsIPcEE")
!123 = !{!124}
!124 = !DISubprogram(name: "pointer_to", linkageName: "_ZNSt3__114pointer_traitsIPcE10pointer_toERc", scope: !122, file: !24, line: 932, type: !125, isLocal: false, isDefinition: false, scopeLine: 932, flags: DIFlagPrototyped, isOptimized: false)
!125 = !DISubroutineType(types: !126)
!126 = !{!127, !128}
!127 = !DIDerivedType(tag: DW_TAG_typedef, name: "pointer", scope: !122, file: !24, line: 918, baseType: !40)
!128 = !DIDerivedType(tag: DW_TAG_reference_type, baseType: !129, size: 64, align: 64)
!129 = !DIDerivedType(tag: DW_TAG_typedef, name: "type", scope: !131, file: !130, line: 411, baseType: !41)
!130 = !DIFile(filename: "/usr/local/Cellar/llvm@3.9/3.9.1/bin/../include/c++/v1/type_traits", directory: "/usr/local/mull/mull/lab/simple_test/mutation_operators/and_or_replacement_cpp")
!131 = distinct !DICompositeType(tag: DW_TAG_structure_type, name: "conditional<false, std::__1::pointer_traits<char *>::__nat, char>", scope: !6, file: !130, line: 411, size: 8, align: 8, elements: !65, templateParams: !132, identifier: "_ZTSNSt3__111conditionalILb0ENS_14pointer_traitsIPcE5__natEcEE")
!132 = !{!133, !134, !136}
!133 = !DITemplateValueParameter(name: "_Bp", type: !21, value: i8 0)
!134 = !DITemplateTypeParameter(name: "_If", type: !135)
!135 = !DICompositeType(tag: DW_TAG_structure_type, name: "__nat", scope: !122, file: !24, line: 929, flags: DIFlagFwdDecl, identifier: "_ZTSNSt3__114pointer_traitsIPcE5__natE")
!136 = !DITemplateTypeParameter(name: "_Then", type: !41)
!137 = !{!117}
!138 = !{!139}
!139 = !DITemplateTypeParameter(name: "_Up", type: !69)
!140 = !DISubprogram(name: "deallocate", linkageName: "_ZNSt3__116allocator_traitsINS_9allocatorIcEEE10deallocateERS2_Pcm", scope: !94, file: !24, line: 1497, type: !141, isLocal: false, isDefinition: false, scopeLine: 1497, flags: DIFlagPrototyped, isOptimized: false)
!141 = !DISubroutineType(types: !142)
!142 = !{null, !108, !99, !93}
!143 = !DISubprogram(name: "max_size", linkageName: "_ZNSt3__116allocator_traitsINS_9allocatorIcEEE8max_sizeERKS2_", scope: !94, file: !24, line: 1541, type: !144, isLocal: false, isDefinition: false, scopeLine: 1541, flags: DIFlagPrototyped, isOptimized: false)
!144 = !DISubroutineType(types: !145)
!145 = !{!93, !146}
!146 = !DIDerivedType(tag: DW_TAG_reference_type, baseType: !147, size: 64, align: 64)
!147 = !DIDerivedType(tag: DW_TAG_const_type, baseType: !109)
!148 = !DISubprogram(name: "select_on_container_copy_construction", linkageName: "_ZNSt3__116allocator_traitsINS_9allocatorIcEEE37select_on_container_copy_constructionERKS2_", scope: !94, file: !24, line: 1546, type: !149, isLocal: false, isDefinition: false, scopeLine: 1546, flags: DIFlagPrototyped, isOptimized: false)
!149 = !DISubroutineType(types: !150)
!150 = !{!109, !146}
!151 = !DISubprogram(name: "allocate", linkageName: "_ZNSt3__116allocator_traitsINS_9allocatorIcEEE8allocateERS2_mPKvNS_17integral_constantIbLb1EEE", scope: !94, file: !24, line: 1646, type: !152, isLocal: false, isDefinition: false, scopeLine: 1646, flags: DIFlagPrivate | DIFlagPrototyped, isOptimized: false)
!152 = !DISubroutineType(types: !153)
!153 = !{!99, !108, !93, !113, !154}
!154 = !DIDerivedType(tag: DW_TAG_typedef, name: "true_type", scope: !6, file: !130, line: 520, baseType: !155)
!155 = distinct !DICompositeType(tag: DW_TAG_structure_type, name: "integral_constant<bool, true>", scope: !6, file: !130, line: 496, size: 8, align: 8, elements: !156, templateParams: !165, identifier: "_ZTSNSt3__117integral_constantIbLb1EEE")
!156 = !{!157, !159}
!157 = !DIDerivedType(tag: DW_TAG_member, name: "value", scope: !155, file: !130, line: 498, baseType: !158, flags: DIFlagStaticMember, extraData: i1 true)
!158 = !DIDerivedType(tag: DW_TAG_const_type, baseType: !21)
!159 = !DISubprogram(name: "operator bool", linkageName: "_ZNKSt3__117integral_constantIbLb1EEcvbEv", scope: !155, file: !130, line: 502, type: !160, isLocal: false, isDefinition: false, scopeLine: 502, flags: DIFlagPrototyped, isOptimized: false)
!160 = !DISubroutineType(types: !161)
!161 = !{!162, !163}
!162 = !DIDerivedType(tag: DW_TAG_typedef, name: "value_type", scope: !155, file: !130, line: 499, baseType: !21)
!163 = !DIDerivedType(tag: DW_TAG_pointer_type, baseType: !164, size: 64, align: 64, flags: DIFlagArtificial | DIFlagObjectPointer)
!164 = !DIDerivedType(tag: DW_TAG_const_type, baseType: !155)
!165 = !{!166, !167}
!166 = !DITemplateTypeParameter(name: "_Tp", type: !21)
!167 = !DITemplateValueParameter(name: "__v", type: !21, value: i8 1)
!168 = !DISubprogram(name: "allocate", linkageName: "_ZNSt3__116allocator_traitsINS_9allocatorIcEEE8allocateERS2_mPKvNS_17integral_constantIbLb0EEE", scope: !94, file: !24, line: 1650, type: !169, isLocal: false, isDefinition: false, scopeLine: 1650, flags: DIFlagPrivate | DIFlagPrototyped, isOptimized: false)
!169 = !DISubroutineType(types: !170)
!170 = !{!99, !108, !93, !113, !171}
!171 = !DIDerivedType(tag: DW_TAG_typedef, name: "false_type", scope: !6, file: !130, line: 521, baseType: !172)
!172 = distinct !DICompositeType(tag: DW_TAG_structure_type, name: "integral_constant<bool, false>", scope: !6, file: !130, line: 496, size: 8, align: 8, elements: !173, templateParams: !181, identifier: "_ZTSNSt3__117integral_constantIbLb0EEE")
!173 = !{!174, !175}
!174 = !DIDerivedType(tag: DW_TAG_member, name: "value", scope: !172, file: !130, line: 498, baseType: !158, flags: DIFlagStaticMember, extraData: i1 false)
!175 = !DISubprogram(name: "operator bool", linkageName: "_ZNKSt3__117integral_constantIbLb0EEcvbEv", scope: !172, file: !130, line: 502, type: !176, isLocal: false, isDefinition: false, scopeLine: 502, flags: DIFlagPrototyped, isOptimized: false)
!176 = !DISubroutineType(types: !177)
!177 = !{!178, !179}
!178 = !DIDerivedType(tag: DW_TAG_typedef, name: "value_type", scope: !172, file: !130, line: 499, baseType: !21)
!179 = !DIDerivedType(tag: DW_TAG_pointer_type, baseType: !180, size: 64, align: 64, flags: DIFlagArtificial | DIFlagObjectPointer)
!180 = !DIDerivedType(tag: DW_TAG_const_type, baseType: !172)
!181 = !{!166, !182}
!182 = !DITemplateValueParameter(name: "__v", type: !21, value: i8 0)
!183 = !DISubprogram(name: "__max_size", linkageName: "_ZNSt3__116allocator_traitsINS_9allocatorIcEEE10__max_sizeENS_17integral_constantIbLb1EEERKS2_", scope: !94, file: !24, line: 1679, type: !184, isLocal: false, isDefinition: false, scopeLine: 1679, flags: DIFlagPrivate | DIFlagPrototyped, isOptimized: false)
!184 = !DISubroutineType(types: !185)
!185 = !{!93, !154, !146}
!186 = !DISubprogram(name: "__max_size", linkageName: "_ZNSt3__116allocator_traitsINS_9allocatorIcEEE10__max_sizeENS_17integral_constantIbLb0EEERKS2_", scope: !94, file: !24, line: 1682, type: !187, isLocal: false, isDefinition: false, scopeLine: 1682, flags: DIFlagPrivate | DIFlagPrototyped, isOptimized: false)
!187 = !DISubroutineType(types: !188)
!188 = !{!93, !171, !146}
!189 = !DISubprogram(name: "select_on_container_copy_construction", linkageName: "_ZNSt3__116allocator_traitsINS_9allocatorIcEEE37select_on_container_copy_constructionENS_17integral_constantIbLb1EEERKS2_", scope: !94, file: !24, line: 1687, type: !190, isLocal: false, isDefinition: false, scopeLine: 1687, flags: DIFlagPrivate | DIFlagPrototyped, isOptimized: false)
!190 = !DISubroutineType(types: !191)
!191 = !{!109, !154, !146}
!192 = !DISubprogram(name: "select_on_container_copy_construction", linkageName: "_ZNSt3__116allocator_traitsINS_9allocatorIcEEE37select_on_container_copy_constructionENS_17integral_constantIbLb0EEERKS2_", scope: !94, file: !24, line: 1691, type: !193, isLocal: false, isDefinition: false, scopeLine: 1691, flags: DIFlagPrivate | DIFlagPrototyped, isOptimized: false)
!193 = !DISubroutineType(types: !194)
!194 = !{!109, !171, !146}
!195 = !{!118}
!196 = !DIDerivedType(tag: DW_TAG_typedef, name: "type", scope: !197, file: !24, line: 1100, baseType: !201)
!197 = distinct !DICompositeType(tag: DW_TAG_structure_type, name: "__size_type<std::__1::allocator<char>, long, true>", scope: !6, file: !24, line: 1098, size: 8, align: 8, elements: !65, templateParams: !198, identifier: "_ZTSNSt3__111__size_typeINS_9allocatorIcEElLb1EEE")
!198 = !{!118, !199, !20}
!199 = !DITemplateTypeParameter(name: "_DiffType", type: !200)
!200 = !DIBasicType(name: "long int", size: 64, align: 64, encoding: DW_ATE_signed)
!201 = !DIDerivedType(tag: DW_TAG_typedef, name: "size_type", scope: !30, file: !24, line: 1711, baseType: !58)
!202 = !DIDerivedType(tag: DW_TAG_member, name: "__size_", scope: !89, file: !4, line: 1315, baseType: !92, size: 64, align: 64, offset: 64)
!203 = !DIDerivedType(tag: DW_TAG_member, name: "__data_", scope: !89, file: !4, line: 1316, baseType: !204, size: 64, align: 64, offset: 128)
!204 = !DIDerivedType(tag: DW_TAG_typedef, name: "pointer", scope: !5, file: !4, line: 1260, baseType: !99)
!205 = !DIDerivedType(tag: DW_TAG_member, name: "__s", scope: !86, file: !4, line: 1356, baseType: !206, size: 192, align: 8)
!206 = distinct !DICompositeType(tag: DW_TAG_structure_type, name: "__short", scope: !5, file: !4, line: 1330, size: 192, align: 8, elements: !207, identifier: "_ZTSNSt3__112basic_stringIcNS_11char_traitsIcEENS_9allocatorIcEEE7__shortE")
!207 = !{!208, !265}
!208 = !DIDerivedType(tag: DW_TAG_member, scope: !206, file: !4, line: 1332, baseType: !209, size: 8, align: 8)
!209 = distinct !DICompositeType(tag: DW_TAG_union_type, scope: !206, file: !4, line: 1332, size: 8, align: 8, elements: !210, identifier: "_ZTSNSt3__112basic_stringIcNS_11char_traitsIcEENS_9allocatorIcEEE7__shortUt_E")
!210 = !{!211, !213}
!211 = !DIDerivedType(tag: DW_TAG_member, name: "__size_", scope: !209, file: !4, line: 1334, baseType: !212, size: 8, align: 8)
!212 = !DIBasicType(name: "unsigned char", size: 8, align: 8, encoding: DW_ATE_unsigned_char)
!213 = !DIDerivedType(tag: DW_TAG_member, name: "__lx", scope: !209, file: !4, line: 1335, baseType: !214, size: 8, align: 8)
!214 = !DIDerivedType(tag: DW_TAG_typedef, name: "value_type", scope: !5, file: !4, line: 1253, baseType: !215)
!215 = !DIDerivedType(tag: DW_TAG_typedef, name: "char_type", scope: !216, file: !4, line: 632, baseType: !41)
!216 = distinct !DICompositeType(tag: DW_TAG_structure_type, name: "char_traits<char>", scope: !6, file: !4, line: 630, size: 8, align: 8, elements: !217, templateParams: !263, identifier: "_ZTSNSt3__111char_traitsIcEE")
!217 = !{!218, !224, !227, !228, !233, !236, !239, !243, !244, !247, !251, !254, !257, !260}
!218 = !DISubprogram(name: "assign", linkageName: "_ZNSt3__111char_traitsIcE6assignERcRKc", scope: !216, file: !4, line: 638, type: !219, isLocal: false, isDefinition: false, scopeLine: 638, flags: DIFlagPrototyped, isOptimized: false)
!219 = !DISubroutineType(types: !220)
!220 = !{null, !221, !222}
!221 = !DIDerivedType(tag: DW_TAG_reference_type, baseType: !215, size: 64, align: 64)
!222 = !DIDerivedType(tag: DW_TAG_reference_type, baseType: !223, size: 64, align: 64)
!223 = !DIDerivedType(tag: DW_TAG_const_type, baseType: !215)
!224 = !DISubprogram(name: "eq", linkageName: "_ZNSt3__111char_traitsIcE2eqEcc", scope: !216, file: !4, line: 640, type: !225, isLocal: false, isDefinition: false, scopeLine: 640, flags: DIFlagPrototyped, isOptimized: false)
!225 = !DISubroutineType(types: !226)
!226 = !{!21, !215, !215}
!227 = !DISubprogram(name: "lt", linkageName: "_ZNSt3__111char_traitsIcE2ltEcc", scope: !216, file: !4, line: 642, type: !225, isLocal: false, isDefinition: false, scopeLine: 642, flags: DIFlagPrototyped, isOptimized: false)
!228 = !DISubprogram(name: "compare", linkageName: "_ZNSt3__111char_traitsIcE7compareEPKcS3_m", scope: !216, file: !4, line: 645, type: !229, isLocal: false, isDefinition: false, scopeLine: 645, flags: DIFlagPrototyped, isOptimized: false)
!229 = !DISubroutineType(types: !230)
!230 = !{!231, !232, !232, !58}
!231 = !DIBasicType(name: "int", size: 32, align: 32, encoding: DW_ATE_signed)
!232 = !DIDerivedType(tag: DW_TAG_pointer_type, baseType: !223, size: 64, align: 64)
!233 = !DISubprogram(name: "length", linkageName: "_ZNSt3__111char_traitsIcE6lengthEPKc", scope: !216, file: !4, line: 647, type: !234, isLocal: false, isDefinition: false, scopeLine: 647, flags: DIFlagPrototyped, isOptimized: false)
!234 = !DISubroutineType(types: !235)
!235 = !{!58, !232}
!236 = !DISubprogram(name: "find", linkageName: "_ZNSt3__111char_traitsIcE4findEPKcmRS2_", scope: !216, file: !4, line: 648, type: !237, isLocal: false, isDefinition: false, scopeLine: 648, flags: DIFlagPrototyped, isOptimized: false)
!237 = !DISubroutineType(types: !238)
!238 = !{!232, !232, !58, !222}
!239 = !DISubprogram(name: "move", linkageName: "_ZNSt3__111char_traitsIcE4moveEPcPKcm", scope: !216, file: !4, line: 650, type: !240, isLocal: false, isDefinition: false, scopeLine: 650, flags: DIFlagPrototyped, isOptimized: false)
!240 = !DISubroutineType(types: !241)
!241 = !{!242, !242, !232, !58}
!242 = !DIDerivedType(tag: DW_TAG_pointer_type, baseType: !215, size: 64, align: 64)
!243 = !DISubprogram(name: "copy", linkageName: "_ZNSt3__111char_traitsIcE4copyEPcPKcm", scope: !216, file: !4, line: 652, type: !240, isLocal: false, isDefinition: false, scopeLine: 652, flags: DIFlagPrototyped, isOptimized: false)
!244 = !DISubprogram(name: "assign", linkageName: "_ZNSt3__111char_traitsIcE6assignEPcmc", scope: !216, file: !4, line: 657, type: !245, isLocal: false, isDefinition: false, scopeLine: 657, flags: DIFlagPrototyped, isOptimized: false)
!245 = !DISubroutineType(types: !246)
!246 = !{!242, !242, !58, !215}
!247 = !DISubprogram(name: "not_eof", linkageName: "_ZNSt3__111char_traitsIcE7not_eofEi", scope: !216, file: !4, line: 660, type: !248, isLocal: false, isDefinition: false, scopeLine: 660, flags: DIFlagPrototyped, isOptimized: false)
!248 = !DISubroutineType(types: !249)
!249 = !{!250, !250}
!250 = !DIDerivedType(tag: DW_TAG_typedef, name: "int_type", scope: !216, file: !4, line: 633, baseType: !231)
!251 = !DISubprogram(name: "to_char_type", linkageName: "_ZNSt3__111char_traitsIcE12to_char_typeEi", scope: !216, file: !4, line: 662, type: !252, isLocal: false, isDefinition: false, scopeLine: 662, flags: DIFlagPrototyped, isOptimized: false)
!252 = !DISubroutineType(types: !253)
!253 = !{!215, !250}
!254 = !DISubprogram(name: "to_int_type", linkageName: "_ZNSt3__111char_traitsIcE11to_int_typeEc", scope: !216, file: !4, line: 664, type: !255, isLocal: false, isDefinition: false, scopeLine: 664, flags: DIFlagPrototyped, isOptimized: false)
!255 = !DISubroutineType(types: !256)
!256 = !{!250, !215}
!257 = !DISubprogram(name: "eq_int_type", linkageName: "_ZNSt3__111char_traitsIcE11eq_int_typeEii", scope: !216, file: !4, line: 666, type: !258, isLocal: false, isDefinition: false, scopeLine: 666, flags: DIFlagPrototyped, isOptimized: false)
!258 = !DISubroutineType(types: !259)
!259 = !{!21, !250, !250}
!260 = !DISubprogram(name: "eof", linkageName: "_ZNSt3__111char_traitsIcE3eofEv", scope: !216, file: !4, line: 668, type: !261, isLocal: false, isDefinition: false, scopeLine: 668, flags: DIFlagPrototyped, isOptimized: false)
!261 = !DISubroutineType(types: !262)
!262 = !{!250}
!263 = !{!264}
!264 = !DITemplateTypeParameter(name: "_CharT", type: !41)
!265 = !DIDerivedType(tag: DW_TAG_member, name: "__data_", scope: !206, file: !4, line: 1337, baseType: !266, size: 184, align: 8, offset: 8)
!266 = !DICompositeType(tag: DW_TAG_array_type, baseType: !214, size: 184, align: 8, elements: !267)
!267 = !{!268}
!268 = !DISubrange(count: 23)
!269 = !DIDerivedType(tag: DW_TAG_member, name: "__r", scope: !86, file: !4, line: 1357, baseType: !270, size: 192, align: 64)
!270 = distinct !DICompositeType(tag: DW_TAG_structure_type, name: "__raw", scope: !5, file: !4, line: 1346, size: 192, align: 64, elements: !271, identifier: "_ZTSNSt3__112basic_stringIcNS_11char_traitsIcEENS_9allocatorIcEEE5__rawE")
!271 = !{!272}
!272 = !DIDerivedType(tag: DW_TAG_member, name: "__words", scope: !270, file: !4, line: 1348, baseType: !273, size: 192, align: 64)
!273 = !DICompositeType(tag: DW_TAG_array_type, baseType: !92, size: 192, align: 64, elements: !274)
!274 = !{!275}
!275 = !DISubrange(count: 3)
!276 = !DISubprogram(name: "__libcpp_compressed_pair_imp", scope: !27, file: !24, line: 2246, type: !277, isLocal: false, isDefinition: false, scopeLine: 2246, flags: DIFlagPublic | DIFlagPrototyped, isOptimized: false)
!277 = !DISubroutineType(types: !278)
!278 = !{null, !279}
!279 = !DIDerivedType(tag: DW_TAG_pointer_type, baseType: !27, size: 64, align: 64, flags: DIFlagArtificial | DIFlagObjectPointer)
!280 = !DISubprogram(name: "__libcpp_compressed_pair_imp", scope: !27, file: !24, line: 2247, type: !281, isLocal: false, isDefinition: false, scopeLine: 2247, flags: DIFlagPublic | DIFlagExplicit | DIFlagPrototyped, isOptimized: false)
!281 = !DISubroutineType(types: !282)
!282 = !{null, !279, !283}
!283 = !DIDerivedType(tag: DW_TAG_typedef, name: "_T1_param", scope: !27, file: !24, line: 2237, baseType: !83)
!284 = !DISubprogram(name: "__libcpp_compressed_pair_imp", scope: !27, file: !24, line: 2249, type: !285, isLocal: false, isDefinition: false, scopeLine: 2249, flags: DIFlagPublic | DIFlagExplicit | DIFlagPrototyped, isOptimized: false)
!285 = !DISubroutineType(types: !286)
!286 = !{null, !279, !287}
!287 = !DIDerivedType(tag: DW_TAG_typedef, name: "_T2_param", scope: !27, file: !24, line: 2238, baseType: !30)
!288 = !DISubprogram(name: "__libcpp_compressed_pair_imp", scope: !27, file: !24, line: 2251, type: !289, isLocal: false, isDefinition: false, scopeLine: 2251, flags: DIFlagPublic | DIFlagPrototyped, isOptimized: false)
!289 = !DISubroutineType(types: !290)
!290 = !{null, !279, !283, !287}
!291 = !DISubprogram(name: "first", linkageName: "_ZNSt3__128__libcpp_compressed_pair_impINS_12basic_stringIcNS_11char_traitsIcEENS_9allocatorIcEEE5__repES5_Lj2EE5firstEv", scope: !27, file: !24, line: 2308, type: !292, isLocal: false, isDefinition: false, scopeLine: 2308, flags: DIFlagPublic | DIFlagPrototyped, isOptimized: false)
!292 = !DISubroutineType(types: !293)
!293 = !{!294, !279}
!294 = !DIDerivedType(tag: DW_TAG_typedef, name: "_T1_reference", scope: !27, file: !24, line: 2240, baseType: !295)
!295 = !DIDerivedType(tag: DW_TAG_reference_type, baseType: !296, size: 64, align: 64)
!296 = !DIDerivedType(tag: DW_TAG_typedef, name: "type", scope: !297, file: !130, line: 1060, baseType: !83)
!297 = distinct !DICompositeType(tag: DW_TAG_structure_type, name: "remove_reference<std::__1::basic_string<char, std::__1::char_traits<char>, std::__1::allocator<char> >::__rep>", scope: !6, file: !130, line: 1060, size: 8, align: 8, elements: !65, templateParams: !298, identifier: "_ZTSNSt3__116remove_referenceINS_12basic_stringIcNS_11char_traitsIcEENS_9allocatorIcEEE5__repEEE")
!298 = !{!299}
!299 = !DITemplateTypeParameter(name: "_Tp", type: !83)
!300 = !DISubprogram(name: "first", linkageName: "_ZNKSt3__128__libcpp_compressed_pair_impINS_12basic_stringIcNS_11char_traitsIcEENS_9allocatorIcEEE5__repES5_Lj2EE5firstEv", scope: !27, file: !24, line: 2309, type: !301, isLocal: false, isDefinition: false, scopeLine: 2309, flags: DIFlagPublic | DIFlagPrototyped, isOptimized: false)
!301 = !DISubroutineType(types: !302)
!302 = !{!303, !306}
!303 = !DIDerivedType(tag: DW_TAG_typedef, name: "_T1_const_reference", scope: !27, file: !24, line: 2243, baseType: !304)
!304 = !DIDerivedType(tag: DW_TAG_reference_type, baseType: !305, size: 64, align: 64)
!305 = !DIDerivedType(tag: DW_TAG_const_type, baseType: !296)
!306 = !DIDerivedType(tag: DW_TAG_pointer_type, baseType: !307, size: 64, align: 64, flags: DIFlagArtificial | DIFlagObjectPointer)
!307 = !DIDerivedType(tag: DW_TAG_const_type, baseType: !27)
!308 = !DISubprogram(name: "second", linkageName: "_ZNSt3__128__libcpp_compressed_pair_impINS_12basic_stringIcNS_11char_traitsIcEENS_9allocatorIcEEE5__repES5_Lj2EE6secondEv", scope: !27, file: !24, line: 2311, type: !309, isLocal: false, isDefinition: false, scopeLine: 2311, flags: DIFlagPublic | DIFlagPrototyped, isOptimized: false)
!309 = !DISubroutineType(types: !310)
!310 = !{!311, !279}
!311 = !DIDerivedType(tag: DW_TAG_typedef, name: "_T2_reference", scope: !27, file: !24, line: 2241, baseType: !312)
!312 = !DIDerivedType(tag: DW_TAG_reference_type, baseType: !30, size: 64, align: 64)
!313 = !DISubprogram(name: "second", linkageName: "_ZNKSt3__128__libcpp_compressed_pair_impINS_12basic_stringIcNS_11char_traitsIcEENS_9allocatorIcEEE5__repES5_Lj2EE6secondEv", scope: !27, file: !24, line: 2312, type: !314, isLocal: false, isDefinition: false, scopeLine: 2312, flags: DIFlagPublic | DIFlagPrototyped, isOptimized: false)
!314 = !DISubroutineType(types: !315)
!315 = !{!316, !306}
!316 = !DIDerivedType(tag: DW_TAG_typedef, name: "_T2_const_reference", scope: !27, file: !24, line: 2244, baseType: !317)
!317 = !DIDerivedType(tag: DW_TAG_reference_type, baseType: !43, size: 64, align: 64)
!318 = !DISubprogram(name: "swap", linkageName: "_ZNSt3__128__libcpp_compressed_pair_impINS_12basic_stringIcNS_11char_traitsIcEENS_9allocatorIcEEE5__repES5_Lj2EE4swapERS8_", scope: !27, file: !24, line: 2314, type: !319, isLocal: false, isDefinition: false, scopeLine: 2314, flags: DIFlagPublic | DIFlagPrototyped, isOptimized: false)
!319 = !DISubroutineType(types: !320)
!320 = !{null, !279, !321}
!321 = !DIDerivedType(tag: DW_TAG_reference_type, baseType: !27, size: 64, align: 64)
!322 = !{!323, !324, !325}
!323 = !DITemplateTypeParameter(name: "_T1", type: !83)
!324 = !DITemplateTypeParameter(name: "_T2", type: !30)
!325 = !DITemplateValueParameter(type: !326, value: i32 2)
!326 = !DIBasicType(name: "unsigned int", size: 32, align: 32, encoding: DW_ATE_unsigned)
!327 = !DISubprogram(name: "__compressed_pair", scope: !23, file: !24, line: 2425, type: !328, isLocal: false, isDefinition: false, scopeLine: 2425, flags: DIFlagPublic | DIFlagPrototyped, isOptimized: false)
!328 = !DISubroutineType(types: !329)
!329 = !{null, !330}
!330 = !DIDerivedType(tag: DW_TAG_pointer_type, baseType: !23, size: 64, align: 64, flags: DIFlagArtificial | DIFlagObjectPointer)
!331 = !DISubprogram(name: "__compressed_pair", scope: !23, file: !24, line: 2426, type: !332, isLocal: false, isDefinition: false, scopeLine: 2426, flags: DIFlagPublic | DIFlagExplicit | DIFlagPrototyped, isOptimized: false)
!332 = !DISubroutineType(types: !333)
!333 = !{null, !330, !334}
!334 = !DIDerivedType(tag: DW_TAG_typedef, name: "_T1_param", scope: !23, file: !24, line: 2416, baseType: !283)
!335 = !DISubprogram(name: "__compressed_pair", scope: !23, file: !24, line: 2428, type: !336, isLocal: false, isDefinition: false, scopeLine: 2428, flags: DIFlagPublic | DIFlagExplicit | DIFlagPrototyped, isOptimized: false)
!336 = !DISubroutineType(types: !337)
!337 = !{null, !330, !338}
!338 = !DIDerivedType(tag: DW_TAG_typedef, name: "_T2_param", scope: !23, file: !24, line: 2417, baseType: !287)
!339 = !DISubprogram(name: "__compressed_pair", scope: !23, file: !24, line: 2430, type: !340, isLocal: false, isDefinition: false, scopeLine: 2430, flags: DIFlagPublic | DIFlagPrototyped, isOptimized: false)
!340 = !DISubroutineType(types: !341)
!341 = !{null, !330, !334, !338}
!342 = !DISubprogram(name: "first", linkageName: "_ZNSt3__117__compressed_pairINS_12basic_stringIcNS_11char_traitsIcEENS_9allocatorIcEEE5__repES5_E5firstEv", scope: !23, file: !24, line: 2480, type: !343, isLocal: false, isDefinition: false, scopeLine: 2480, flags: DIFlagPublic | DIFlagPrototyped, isOptimized: false)
!343 = !DISubroutineType(types: !344)
!344 = !{!345, !330}
!345 = !DIDerivedType(tag: DW_TAG_typedef, name: "_T1_reference", scope: !23, file: !24, line: 2419, baseType: !294)
!346 = !DISubprogram(name: "first", linkageName: "_ZNKSt3__117__compressed_pairINS_12basic_stringIcNS_11char_traitsIcEENS_9allocatorIcEEE5__repES5_E5firstEv", scope: !23, file: !24, line: 2481, type: !347, isLocal: false, isDefinition: false, scopeLine: 2481, flags: DIFlagPublic | DIFlagPrototyped, isOptimized: false)
!347 = !DISubroutineType(types: !348)
!348 = !{!349, !350}
!349 = !DIDerivedType(tag: DW_TAG_typedef, name: "_T1_const_reference", scope: !23, file: !24, line: 2422, baseType: !303)
!350 = !DIDerivedType(tag: DW_TAG_pointer_type, baseType: !351, size: 64, align: 64, flags: DIFlagArtificial | DIFlagObjectPointer)
!351 = !DIDerivedType(tag: DW_TAG_const_type, baseType: !23)
!352 = !DISubprogram(name: "second", linkageName: "_ZNSt3__117__compressed_pairINS_12basic_stringIcNS_11char_traitsIcEENS_9allocatorIcEEE5__repES5_E6secondEv", scope: !23, file: !24, line: 2483, type: !353, isLocal: false, isDefinition: false, scopeLine: 2483, flags: DIFlagPublic | DIFlagPrototyped, isOptimized: false)
!353 = !DISubroutineType(types: !354)
!354 = !{!355, !330}
!355 = !DIDerivedType(tag: DW_TAG_typedef, name: "_T2_reference", scope: !23, file: !24, line: 2420, baseType: !311)
!356 = !DISubprogram(name: "second", linkageName: "_ZNKSt3__117__compressed_pairINS_12basic_stringIcNS_11char_traitsIcEENS_9allocatorIcEEE5__repES5_E6secondEv", scope: !23, file: !24, line: 2484, type: !357, isLocal: false, isDefinition: false, scopeLine: 2484, flags: DIFlagPublic | DIFlagPrototyped, isOptimized: false)
!357 = !DISubroutineType(types: !358)
!358 = !{!359, !350}
!359 = !DIDerivedType(tag: DW_TAG_typedef, name: "_T2_const_reference", scope: !23, file: !24, line: 2423, baseType: !316)
!360 = !DISubprogram(name: "swap", linkageName: "_ZNSt3__117__compressed_pairINS_12basic_stringIcNS_11char_traitsIcEENS_9allocatorIcEEE5__repES5_E4swapERS8_", scope: !23, file: !24, line: 2486, type: !361, isLocal: false, isDefinition: false, scopeLine: 2486, flags: DIFlagPublic | DIFlagPrototyped, isOptimized: false)
!361 = !DISubroutineType(types: !362)
!362 = !{null, !330, !363}
!363 = !DIDerivedType(tag: DW_TAG_reference_type, baseType: !23, size: 64, align: 64)
!364 = !{!323, !324}
!365 = !DIDerivedType(tag: DW_TAG_member, name: "npos", scope: !5, file: !4, line: 1364, baseType: !366, flags: DIFlagPublic | DIFlagStaticMember, extraData: i64 -1)
!366 = !DIDerivedType(tag: DW_TAG_const_type, baseType: !92)
!367 = !DISubprogram(name: "basic_string", scope: !5, file: !4, line: 1366, type: !368, isLocal: false, isDefinition: false, scopeLine: 1366, flags: DIFlagPublic | DIFlagPrototyped, isOptimized: false)
!368 = !DISubroutineType(types: !369)
!369 = !{null, !370}
!370 = !DIDerivedType(tag: DW_TAG_pointer_type, baseType: !5, size: 64, align: 64, flags: DIFlagArtificial | DIFlagObjectPointer)
!371 = !DISubprogram(name: "basic_string", scope: !5, file: !4, line: 1369, type: !372, isLocal: false, isDefinition: false, scopeLine: 1369, flags: DIFlagPublic | DIFlagExplicit | DIFlagPrototyped, isOptimized: false)
!372 = !DISubroutineType(types: !373)
!373 = !{null, !370, !374}
!374 = !DIDerivedType(tag: DW_TAG_reference_type, baseType: !375, size: 64, align: 64)
!375 = !DIDerivedType(tag: DW_TAG_const_type, baseType: !376)
!376 = !DIDerivedType(tag: DW_TAG_typedef, name: "allocator_type", scope: !5, file: !4, line: 1254, baseType: !30)
!377 = !DISubprogram(name: "basic_string", scope: !5, file: !4, line: 1376, type: !378, isLocal: false, isDefinition: false, scopeLine: 1376, flags: DIFlagPublic | DIFlagPrototyped, isOptimized: false)
!378 = !DISubroutineType(types: !379)
!379 = !{null, !370, !380}
!380 = !DIDerivedType(tag: DW_TAG_reference_type, baseType: !381, size: 64, align: 64)
!381 = !DIDerivedType(tag: DW_TAG_const_type, baseType: !5)
!382 = !DISubprogram(name: "basic_string", scope: !5, file: !4, line: 1377, type: !383, isLocal: false, isDefinition: false, scopeLine: 1377, flags: DIFlagPublic | DIFlagPrototyped, isOptimized: false)
!383 = !DISubroutineType(types: !384)
!384 = !{null, !370, !380, !374}
!385 = !DISubprogram(name: "basic_string", scope: !5, file: !4, line: 1391, type: !386, isLocal: false, isDefinition: false, scopeLine: 1391, flags: DIFlagPublic | DIFlagPrototyped, isOptimized: false)
!386 = !DISubroutineType(types: !387)
!387 = !{null, !370, !388}
!388 = !DIDerivedType(tag: DW_TAG_pointer_type, baseType: !389, size: 64, align: 64)
!389 = !DIDerivedType(tag: DW_TAG_const_type, baseType: !214)
!390 = !DISubprogram(name: "basic_string", scope: !5, file: !4, line: 1393, type: !391, isLocal: false, isDefinition: false, scopeLine: 1393, flags: DIFlagPublic | DIFlagPrototyped, isOptimized: false)
!391 = !DISubroutineType(types: !392)
!392 = !{null, !370, !388, !374}
!393 = !DISubprogram(name: "basic_string", scope: !5, file: !4, line: 1395, type: !394, isLocal: false, isDefinition: false, scopeLine: 1395, flags: DIFlagPublic | DIFlagPrototyped, isOptimized: false)
!394 = !DISubroutineType(types: !395)
!395 = !{null, !370, !388, !92}
!396 = !DISubprogram(name: "basic_string", scope: !5, file: !4, line: 1397, type: !397, isLocal: false, isDefinition: false, scopeLine: 1397, flags: DIFlagPublic | DIFlagPrototyped, isOptimized: false)
!397 = !DISubroutineType(types: !398)
!398 = !{null, !370, !388, !92, !374}
!399 = !DISubprogram(name: "basic_string", scope: !5, file: !4, line: 1399, type: !400, isLocal: false, isDefinition: false, scopeLine: 1399, flags: DIFlagPublic | DIFlagPrototyped, isOptimized: false)
!400 = !DISubroutineType(types: !401)
!401 = !{null, !370, !92, !214}
!402 = !DISubprogram(name: "basic_string", scope: !5, file: !4, line: 1401, type: !403, isLocal: false, isDefinition: false, scopeLine: 1401, flags: DIFlagPublic | DIFlagPrototyped, isOptimized: false)
!403 = !DISubroutineType(types: !404)
!404 = !{null, !370, !92, !214, !374}
!405 = !DISubprogram(name: "basic_string", scope: !5, file: !4, line: 1402, type: !406, isLocal: false, isDefinition: false, scopeLine: 1402, flags: DIFlagPublic | DIFlagPrototyped, isOptimized: false)
!406 = !DISubroutineType(types: !407)
!407 = !{null, !370, !380, !92, !92, !374}
!408 = !DISubprogram(name: "basic_string", scope: !5, file: !4, line: 1405, type: !409, isLocal: false, isDefinition: false, scopeLine: 1405, flags: DIFlagPublic | DIFlagPrototyped, isOptimized: false)
!409 = !DISubroutineType(types: !410)
!410 = !{null, !370, !380, !92, !374}
!411 = !DISubprogram(name: "~basic_string", scope: !5, file: !4, line: 1420, type: !368, isLocal: false, isDefinition: false, scopeLine: 1420, flags: DIFlagPublic | DIFlagPrototyped, isOptimized: false)
!412 = !DISubprogram(name: "operator=", linkageName: "_ZNSt3__112basic_stringIcNS_11char_traitsIcEENS_9allocatorIcEEEaSERKS5_", scope: !5, file: !4, line: 1422, type: !413, isLocal: false, isDefinition: false, scopeLine: 1422, flags: DIFlagPublic | DIFlagPrototyped, isOptimized: false)
!413 = !DISubroutineType(types: !414)
!414 = !{!415, !370, !380}
!415 = !DIDerivedType(tag: DW_TAG_reference_type, baseType: !5, size: 64, align: 64)
!416 = !DISubprogram(name: "operator=", linkageName: "_ZNSt3__112basic_stringIcNS_11char_traitsIcEENS_9allocatorIcEEEaSEPKc", scope: !5, file: !4, line: 1428, type: !417, isLocal: false, isDefinition: false, scopeLine: 1428, flags: DIFlagPublic | DIFlagPrototyped, isOptimized: false)
!417 = !DISubroutineType(types: !418)
!418 = !{!415, !370, !388}
!419 = !DISubprogram(name: "operator=", linkageName: "_ZNSt3__112basic_stringIcNS_11char_traitsIcEENS_9allocatorIcEEEaSEc", scope: !5, file: !4, line: 1429, type: !420, isLocal: false, isDefinition: false, scopeLine: 1429, flags: DIFlagPublic | DIFlagPrototyped, isOptimized: false)
!420 = !DISubroutineType(types: !421)
!421 = !{!415, !370, !214}
!422 = !DISubprogram(name: "begin", linkageName: "_ZNSt3__112basic_stringIcNS_11char_traitsIcEENS_9allocatorIcEEE5beginEv", scope: !5, file: !4, line: 1450, type: !423, isLocal: false, isDefinition: false, scopeLine: 1450, flags: DIFlagPublic | DIFlagPrototyped, isOptimized: false)
!423 = !DISubroutineType(types: !424)
!424 = !{!425, !370}
!425 = !DIDerivedType(tag: DW_TAG_typedef, name: "iterator", scope: !5, file: !4, line: 1272, baseType: !426)
!426 = !DICompositeType(tag: DW_TAG_class_type, name: "__wrap_iter<char *>", scope: !6, file: !427, line: 1222, flags: DIFlagFwdDecl, identifier: "_ZTSNSt3__111__wrap_iterIPcEE")
!427 = !DIFile(filename: "/usr/local/Cellar/llvm@3.9/3.9.1/bin/../include/c++/v1/iterator", directory: "/usr/local/mull/mull/lab/simple_test/mutation_operators/and_or_replacement_cpp")
!428 = !DISubprogram(name: "begin", linkageName: "_ZNKSt3__112basic_stringIcNS_11char_traitsIcEENS_9allocatorIcEEE5beginEv", scope: !5, file: !4, line: 1453, type: !429, isLocal: false, isDefinition: false, scopeLine: 1453, flags: DIFlagPublic | DIFlagPrototyped, isOptimized: false)
!429 = !DISubroutineType(types: !430)
!430 = !{!431, !433}
!431 = !DIDerivedType(tag: DW_TAG_typedef, name: "const_iterator", scope: !5, file: !4, line: 1273, baseType: !432)
!432 = !DICompositeType(tag: DW_TAG_class_type, name: "__wrap_iter<const char *>", scope: !6, file: !427, line: 1222, flags: DIFlagFwdDecl, identifier: "_ZTSNSt3__111__wrap_iterIPKcEE")
!433 = !DIDerivedType(tag: DW_TAG_pointer_type, baseType: !381, size: 64, align: 64, flags: DIFlagArtificial | DIFlagObjectPointer)
!434 = !DISubprogram(name: "end", linkageName: "_ZNSt3__112basic_stringIcNS_11char_traitsIcEENS_9allocatorIcEEE3endEv", scope: !5, file: !4, line: 1456, type: !423, isLocal: false, isDefinition: false, scopeLine: 1456, flags: DIFlagPublic | DIFlagPrototyped, isOptimized: false)
!435 = !DISubprogram(name: "end", linkageName: "_ZNKSt3__112basic_stringIcNS_11char_traitsIcEENS_9allocatorIcEEE3endEv", scope: !5, file: !4, line: 1459, type: !429, isLocal: false, isDefinition: false, scopeLine: 1459, flags: DIFlagPublic | DIFlagPrototyped, isOptimized: false)
!436 = !DISubprogram(name: "rbegin", linkageName: "_ZNSt3__112basic_stringIcNS_11char_traitsIcEENS_9allocatorIcEEE6rbeginEv", scope: !5, file: !4, line: 1463, type: !437, isLocal: false, isDefinition: false, scopeLine: 1463, flags: DIFlagPublic | DIFlagPrototyped, isOptimized: false)
!437 = !DISubroutineType(types: !438)
!438 = !{!439, !370}
!439 = !DIDerivedType(tag: DW_TAG_typedef, name: "reverse_iterator", scope: !5, file: !4, line: 1275, baseType: !440)
!440 = !DICompositeType(tag: DW_TAG_class_type, name: "reverse_iterator<std::__1::__wrap_iter<char *> >", scope: !6, file: !427, line: 613, flags: DIFlagFwdDecl, identifier: "_ZTSNSt3__116reverse_iteratorINS_11__wrap_iterIPcEEEE")
!441 = !DISubprogram(name: "rbegin", linkageName: "_ZNKSt3__112basic_stringIcNS_11char_traitsIcEENS_9allocatorIcEEE6rbeginEv", scope: !5, file: !4, line: 1466, type: !442, isLocal: false, isDefinition: false, scopeLine: 1466, flags: DIFlagPublic | DIFlagPrototyped, isOptimized: false)
!442 = !DISubroutineType(types: !443)
!443 = !{!444, !433}
!444 = !DIDerivedType(tag: DW_TAG_typedef, name: "const_reverse_iterator", scope: !5, file: !4, line: 1276, baseType: !445)
!445 = !DICompositeType(tag: DW_TAG_class_type, name: "reverse_iterator<std::__1::__wrap_iter<const char *> >", scope: !6, file: !427, line: 613, flags: DIFlagFwdDecl, identifier: "_ZTSNSt3__116reverse_iteratorINS_11__wrap_iterIPKcEEEE")
!446 = !DISubprogram(name: "rend", linkageName: "_ZNSt3__112basic_stringIcNS_11char_traitsIcEENS_9allocatorIcEEE4rendEv", scope: !5, file: !4, line: 1469, type: !437, isLocal: false, isDefinition: false, scopeLine: 1469, flags: DIFlagPublic | DIFlagPrototyped, isOptimized: false)
!447 = !DISubprogram(name: "rend", linkageName: "_ZNKSt3__112basic_stringIcNS_11char_traitsIcEENS_9allocatorIcEEE4rendEv", scope: !5, file: !4, line: 1472, type: !442, isLocal: false, isDefinition: false, scopeLine: 1472, flags: DIFlagPublic | DIFlagPrototyped, isOptimized: false)
!448 = !DISubprogram(name: "cbegin", linkageName: "_ZNKSt3__112basic_stringIcNS_11char_traitsIcEENS_9allocatorIcEEE6cbeginEv", scope: !5, file: !4, line: 1476, type: !429, isLocal: false, isDefinition: false, scopeLine: 1476, flags: DIFlagPublic | DIFlagPrototyped, isOptimized: false)
!449 = !DISubprogram(name: "cend", linkageName: "_ZNKSt3__112basic_stringIcNS_11char_traitsIcEENS_9allocatorIcEEE4cendEv", scope: !5, file: !4, line: 1479, type: !429, isLocal: false, isDefinition: false, scopeLine: 1479, flags: DIFlagPublic | DIFlagPrototyped, isOptimized: false)
!450 = !DISubprogram(name: "crbegin", linkageName: "_ZNKSt3__112basic_stringIcNS_11char_traitsIcEENS_9allocatorIcEEE7crbeginEv", scope: !5, file: !4, line: 1482, type: !442, isLocal: false, isDefinition: false, scopeLine: 1482, flags: DIFlagPublic | DIFlagPrototyped, isOptimized: false)
!451 = !DISubprogram(name: "crend", linkageName: "_ZNKSt3__112basic_stringIcNS_11char_traitsIcEENS_9allocatorIcEEE5crendEv", scope: !5, file: !4, line: 1485, type: !442, isLocal: false, isDefinition: false, scopeLine: 1485, flags: DIFlagPublic | DIFlagPrototyped, isOptimized: false)
!452 = !DISubprogram(name: "size", linkageName: "_ZNKSt3__112basic_stringIcNS_11char_traitsIcEENS_9allocatorIcEEE4sizeEv", scope: !5, file: !4, line: 1488, type: !453, isLocal: false, isDefinition: false, scopeLine: 1488, flags: DIFlagPublic | DIFlagPrototyped, isOptimized: false)
!453 = !DISubroutineType(types: !454)
!454 = !{!92, !433}
!455 = !DISubprogram(name: "length", linkageName: "_ZNKSt3__112basic_stringIcNS_11char_traitsIcEENS_9allocatorIcEEE6lengthEv", scope: !5, file: !4, line: 1490, type: !453, isLocal: false, isDefinition: false, scopeLine: 1490, flags: DIFlagPublic | DIFlagPrototyped, isOptimized: false)
!456 = !DISubprogram(name: "max_size", linkageName: "_ZNKSt3__112basic_stringIcNS_11char_traitsIcEENS_9allocatorIcEEE8max_sizeEv", scope: !5, file: !4, line: 1491, type: !453, isLocal: false, isDefinition: false, scopeLine: 1491, flags: DIFlagPublic | DIFlagPrototyped, isOptimized: false)
!457 = !DISubprogram(name: "capacity", linkageName: "_ZNKSt3__112basic_stringIcNS_11char_traitsIcEENS_9allocatorIcEEE8capacityEv", scope: !5, file: !4, line: 1492, type: !453, isLocal: false, isDefinition: false, scopeLine: 1492, flags: DIFlagPublic | DIFlagPrototyped, isOptimized: false)
!458 = !DISubprogram(name: "resize", linkageName: "_ZNSt3__112basic_stringIcNS_11char_traitsIcEENS_9allocatorIcEEE6resizeEmc", scope: !5, file: !4, line: 1496, type: !400, isLocal: false, isDefinition: false, scopeLine: 1496, flags: DIFlagPublic | DIFlagPrototyped, isOptimized: false)
!459 = !DISubprogram(name: "resize", linkageName: "_ZNSt3__112basic_stringIcNS_11char_traitsIcEENS_9allocatorIcEEE6resizeEm", scope: !5, file: !4, line: 1497, type: !460, isLocal: false, isDefinition: false, scopeLine: 1497, flags: DIFlagPublic | DIFlagPrototyped, isOptimized: false)
!460 = !DISubroutineType(types: !461)
!461 = !{null, !370, !92}
!462 = !DISubprogram(name: "reserve", linkageName: "_ZNSt3__112basic_stringIcNS_11char_traitsIcEENS_9allocatorIcEEE7reserveEm", scope: !5, file: !4, line: 1499, type: !460, isLocal: false, isDefinition: false, scopeLine: 1499, flags: DIFlagPublic | DIFlagPrototyped, isOptimized: false)
!463 = !DISubprogram(name: "shrink_to_fit", linkageName: "_ZNSt3__112basic_stringIcNS_11char_traitsIcEENS_9allocatorIcEEE13shrink_to_fitEv", scope: !5, file: !4, line: 1501, type: !368, isLocal: false, isDefinition: false, scopeLine: 1501, flags: DIFlagPublic | DIFlagPrototyped, isOptimized: false)
!464 = !DISubprogram(name: "clear", linkageName: "_ZNSt3__112basic_stringIcNS_11char_traitsIcEENS_9allocatorIcEEE5clearEv", scope: !5, file: !4, line: 1503, type: !368, isLocal: false, isDefinition: false, scopeLine: 1503, flags: DIFlagPublic | DIFlagPrototyped, isOptimized: false)
!465 = !DISubprogram(name: "empty", linkageName: "_ZNKSt3__112basic_stringIcNS_11char_traitsIcEENS_9allocatorIcEEE5emptyEv", scope: !5, file: !4, line: 1504, type: !466, isLocal: false, isDefinition: false, scopeLine: 1504, flags: DIFlagPublic | DIFlagPrototyped, isOptimized: false)
!466 = !DISubroutineType(types: !467)
!467 = !{!21, !433}
!468 = !DISubprogram(name: "operator[]", linkageName: "_ZNKSt3__112basic_stringIcNS_11char_traitsIcEENS_9allocatorIcEEEixEm", scope: !5, file: !4, line: 1506, type: !469, isLocal: false, isDefinition: false, scopeLine: 1506, flags: DIFlagPublic | DIFlagPrototyped, isOptimized: false)
!469 = !DISubroutineType(types: !470)
!470 = !{!471, !433, !92}
!471 = !DIDerivedType(tag: DW_TAG_typedef, name: "const_reference", scope: !5, file: !4, line: 1259, baseType: !472)
!472 = !DIDerivedType(tag: DW_TAG_reference_type, baseType: !389, size: 64, align: 64)
!473 = !DISubprogram(name: "operator[]", linkageName: "_ZNSt3__112basic_stringIcNS_11char_traitsIcEENS_9allocatorIcEEEixEm", scope: !5, file: !4, line: 1507, type: !474, isLocal: false, isDefinition: false, scopeLine: 1507, flags: DIFlagPublic | DIFlagPrototyped, isOptimized: false)
!474 = !DISubroutineType(types: !475)
!475 = !{!476, !370, !92}
!476 = !DIDerivedType(tag: DW_TAG_typedef, name: "reference", scope: !5, file: !4, line: 1258, baseType: !477)
!477 = !DIDerivedType(tag: DW_TAG_reference_type, baseType: !214, size: 64, align: 64)
!478 = !DISubprogram(name: "at", linkageName: "_ZNKSt3__112basic_stringIcNS_11char_traitsIcEENS_9allocatorIcEEE2atEm", scope: !5, file: !4, line: 1509, type: !469, isLocal: false, isDefinition: false, scopeLine: 1509, flags: DIFlagPublic | DIFlagPrototyped, isOptimized: false)
!479 = !DISubprogram(name: "at", linkageName: "_ZNSt3__112basic_stringIcNS_11char_traitsIcEENS_9allocatorIcEEE2atEm", scope: !5, file: !4, line: 1510, type: !474, isLocal: false, isDefinition: false, scopeLine: 1510, flags: DIFlagPublic | DIFlagPrototyped, isOptimized: false)
!480 = !DISubprogram(name: "operator+=", linkageName: "_ZNSt3__112basic_stringIcNS_11char_traitsIcEENS_9allocatorIcEEEpLERKS5_", scope: !5, file: !4, line: 1512, type: !413, isLocal: false, isDefinition: false, scopeLine: 1512, flags: DIFlagPublic | DIFlagPrototyped, isOptimized: false)
!481 = !DISubprogram(name: "operator+=", linkageName: "_ZNSt3__112basic_stringIcNS_11char_traitsIcEENS_9allocatorIcEEEpLEPKc", scope: !5, file: !4, line: 1513, type: !417, isLocal: false, isDefinition: false, scopeLine: 1513, flags: DIFlagPublic | DIFlagPrototyped, isOptimized: false)
!482 = !DISubprogram(name: "operator+=", linkageName: "_ZNSt3__112basic_stringIcNS_11char_traitsIcEENS_9allocatorIcEEEpLEc", scope: !5, file: !4, line: 1514, type: !420, isLocal: false, isDefinition: false, scopeLine: 1514, flags: DIFlagPublic | DIFlagPrototyped, isOptimized: false)
!483 = !DISubprogram(name: "append", linkageName: "_ZNSt3__112basic_stringIcNS_11char_traitsIcEENS_9allocatorIcEEE6appendERKS5_", scope: !5, file: !4, line: 1520, type: !413, isLocal: false, isDefinition: false, scopeLine: 1520, flags: DIFlagPublic | DIFlagPrototyped, isOptimized: false)
!484 = !DISubprogram(name: "append", linkageName: "_ZNSt3__112basic_stringIcNS_11char_traitsIcEENS_9allocatorIcEEE6appendERKS5_mm", scope: !5, file: !4, line: 1521, type: !485, isLocal: false, isDefinition: false, scopeLine: 1521, flags: DIFlagPublic | DIFlagPrototyped, isOptimized: false)
!485 = !DISubroutineType(types: !486)
!486 = !{!415, !370, !380, !92, !92}
!487 = !DISubprogram(name: "append", linkageName: "_ZNSt3__112basic_stringIcNS_11char_traitsIcEENS_9allocatorIcEEE6appendEPKcm", scope: !5, file: !4, line: 1522, type: !488, isLocal: false, isDefinition: false, scopeLine: 1522, flags: DIFlagPublic | DIFlagPrototyped, isOptimized: false)
!488 = !DISubroutineType(types: !489)
!489 = !{!415, !370, !388, !92}
!490 = !DISubprogram(name: "append", linkageName: "_ZNSt3__112basic_stringIcNS_11char_traitsIcEENS_9allocatorIcEEE6appendEPKc", scope: !5, file: !4, line: 1523, type: !417, isLocal: false, isDefinition: false, scopeLine: 1523, flags: DIFlagPublic | DIFlagPrototyped, isOptimized: false)
!491 = !DISubprogram(name: "append", linkageName: "_ZNSt3__112basic_stringIcNS_11char_traitsIcEENS_9allocatorIcEEE6appendEmc", scope: !5, file: !4, line: 1524, type: !492, isLocal: false, isDefinition: false, scopeLine: 1524, flags: DIFlagPublic | DIFlagPrototyped, isOptimized: false)
!492 = !DISubroutineType(types: !493)
!493 = !{!415, !370, !92, !214}
!494 = !DISubprogram(name: "push_back", linkageName: "_ZNSt3__112basic_stringIcNS_11char_traitsIcEENS_9allocatorIcEEE9push_backEc", scope: !5, file: !4, line: 1546, type: !495, isLocal: false, isDefinition: false, scopeLine: 1546, flags: DIFlagPublic | DIFlagPrototyped, isOptimized: false)
!495 = !DISubroutineType(types: !496)
!496 = !{null, !370, !214}
!497 = !DISubprogram(name: "pop_back", linkageName: "_ZNSt3__112basic_stringIcNS_11char_traitsIcEENS_9allocatorIcEEE8pop_backEv", scope: !5, file: !4, line: 1548, type: !368, isLocal: false, isDefinition: false, scopeLine: 1548, flags: DIFlagPublic | DIFlagPrototyped, isOptimized: false)
!498 = !DISubprogram(name: "front", linkageName: "_ZNSt3__112basic_stringIcNS_11char_traitsIcEENS_9allocatorIcEEE5frontEv", scope: !5, file: !4, line: 1549, type: !499, isLocal: false, isDefinition: false, scopeLine: 1549, flags: DIFlagPublic | DIFlagPrototyped, isOptimized: false)
!499 = !DISubroutineType(types: !500)
!500 = !{!476, !370}
!501 = !DISubprogram(name: "front", linkageName: "_ZNKSt3__112basic_stringIcNS_11char_traitsIcEENS_9allocatorIcEEE5frontEv", scope: !5, file: !4, line: 1550, type: !502, isLocal: false, isDefinition: false, scopeLine: 1550, flags: DIFlagPublic | DIFlagPrototyped, isOptimized: false)
!502 = !DISubroutineType(types: !503)
!503 = !{!471, !433}
!504 = !DISubprogram(name: "back", linkageName: "_ZNSt3__112basic_stringIcNS_11char_traitsIcEENS_9allocatorIcEEE4backEv", scope: !5, file: !4, line: 1551, type: !499, isLocal: false, isDefinition: false, scopeLine: 1551, flags: DIFlagPublic | DIFlagPrototyped, isOptimized: false)
!505 = !DISubprogram(name: "back", linkageName: "_ZNKSt3__112basic_stringIcNS_11char_traitsIcEENS_9allocatorIcEEE4backEv", scope: !5, file: !4, line: 1552, type: !502, isLocal: false, isDefinition: false, scopeLine: 1552, flags: DIFlagPublic | DIFlagPrototyped, isOptimized: false)
!506 = !DISubprogram(name: "assign", linkageName: "_ZNSt3__112basic_stringIcNS_11char_traitsIcEENS_9allocatorIcEEE6assignERKS5_", scope: !5, file: !4, line: 1555, type: !413, isLocal: false, isDefinition: false, scopeLine: 1555, flags: DIFlagPublic | DIFlagPrototyped, isOptimized: false)
!507 = !DISubprogram(name: "assign", linkageName: "_ZNSt3__112basic_stringIcNS_11char_traitsIcEENS_9allocatorIcEEE6assignERKS5_mm", scope: !5, file: !4, line: 1562, type: !485, isLocal: false, isDefinition: false, scopeLine: 1562, flags: DIFlagPublic | DIFlagPrototyped, isOptimized: false)
!508 = !DISubprogram(name: "assign", linkageName: "_ZNSt3__112basic_stringIcNS_11char_traitsIcEENS_9allocatorIcEEE6assignEPKcm", scope: !5, file: !4, line: 1563, type: !488, isLocal: false, isDefinition: false, scopeLine: 1563, flags: DIFlagPublic | DIFlagPrototyped, isOptimized: false)
!509 = !DISubprogram(name: "assign", linkageName: "_ZNSt3__112basic_stringIcNS_11char_traitsIcEENS_9allocatorIcEEE6assignEPKc", scope: !5, file: !4, line: 1564, type: !417, isLocal: false, isDefinition: false, scopeLine: 1564, flags: DIFlagPublic | DIFlagPrototyped, isOptimized: false)
!510 = !DISubprogram(name: "assign", linkageName: "_ZNSt3__112basic_stringIcNS_11char_traitsIcEENS_9allocatorIcEEE6assignEmc", scope: !5, file: !4, line: 1565, type: !492, isLocal: false, isDefinition: false, scopeLine: 1565, flags: DIFlagPublic | DIFlagPrototyped, isOptimized: false)
!511 = !DISubprogram(name: "insert", linkageName: "_ZNSt3__112basic_stringIcNS_11char_traitsIcEENS_9allocatorIcEEE6insertEmRKS5_", scope: !5, file: !4, line: 1588, type: !512, isLocal: false, isDefinition: false, scopeLine: 1588, flags: DIFlagPublic | DIFlagPrototyped, isOptimized: false)
!512 = !DISubroutineType(types: !513)
!513 = !{!415, !370, !92, !380}
!514 = !DISubprogram(name: "insert", linkageName: "_ZNSt3__112basic_stringIcNS_11char_traitsIcEENS_9allocatorIcEEE6insertEmRKS5_mm", scope: !5, file: !4, line: 1589, type: !515, isLocal: false, isDefinition: false, scopeLine: 1589, flags: DIFlagPublic | DIFlagPrototyped, isOptimized: false)
!515 = !DISubroutineType(types: !516)
!516 = !{!415, !370, !92, !380, !92, !92}
!517 = !DISubprogram(name: "insert", linkageName: "_ZNSt3__112basic_stringIcNS_11char_traitsIcEENS_9allocatorIcEEE6insertEmPKcm", scope: !5, file: !4, line: 1590, type: !518, isLocal: false, isDefinition: false, scopeLine: 1590, flags: DIFlagPublic | DIFlagPrototyped, isOptimized: false)
!518 = !DISubroutineType(types: !519)
!519 = !{!415, !370, !92, !388, !92}
!520 = !DISubprogram(name: "insert", linkageName: "_ZNSt3__112basic_stringIcNS_11char_traitsIcEENS_9allocatorIcEEE6insertEmPKc", scope: !5, file: !4, line: 1591, type: !521, isLocal: false, isDefinition: false, scopeLine: 1591, flags: DIFlagPublic | DIFlagPrototyped, isOptimized: false)
!521 = !DISubroutineType(types: !522)
!522 = !{!415, !370, !92, !388}
!523 = !DISubprogram(name: "insert", linkageName: "_ZNSt3__112basic_stringIcNS_11char_traitsIcEENS_9allocatorIcEEE6insertEmmc", scope: !5, file: !4, line: 1592, type: !524, isLocal: false, isDefinition: false, scopeLine: 1592, flags: DIFlagPublic | DIFlagPrototyped, isOptimized: false)
!524 = !DISubroutineType(types: !525)
!525 = !{!415, !370, !92, !92, !214}
!526 = !DISubprogram(name: "insert", linkageName: "_ZNSt3__112basic_stringIcNS_11char_traitsIcEENS_9allocatorIcEEE6insertENS_11__wrap_iterIPKcEEc", scope: !5, file: !4, line: 1593, type: !527, isLocal: false, isDefinition: false, scopeLine: 1593, flags: DIFlagPublic | DIFlagPrototyped, isOptimized: false)
!527 = !DISubroutineType(types: !528)
!528 = !{!425, !370, !431, !214}
!529 = !DISubprogram(name: "insert", linkageName: "_ZNSt3__112basic_stringIcNS_11char_traitsIcEENS_9allocatorIcEEE6insertENS_11__wrap_iterIPKcEEmc", scope: !5, file: !4, line: 1595, type: !530, isLocal: false, isDefinition: false, scopeLine: 1595, flags: DIFlagPublic | DIFlagPrototyped, isOptimized: false)
!530 = !DISubroutineType(types: !531)
!531 = !{!425, !370, !431, !92, !214}
!532 = !DISubprogram(name: "erase", linkageName: "_ZNSt3__112basic_stringIcNS_11char_traitsIcEENS_9allocatorIcEEE5eraseEmm", scope: !5, file: !4, line: 1618, type: !533, isLocal: false, isDefinition: false, scopeLine: 1618, flags: DIFlagPublic | DIFlagPrototyped, isOptimized: false)
!533 = !DISubroutineType(types: !534)
!534 = !{!415, !370, !92, !92}
!535 = !DISubprogram(name: "erase", linkageName: "_ZNSt3__112basic_stringIcNS_11char_traitsIcEENS_9allocatorIcEEE5eraseENS_11__wrap_iterIPKcEE", scope: !5, file: !4, line: 1620, type: !536, isLocal: false, isDefinition: false, scopeLine: 1620, flags: DIFlagPublic | DIFlagPrototyped, isOptimized: false)
!536 = !DISubroutineType(types: !537)
!537 = !{!425, !370, !431}
!538 = !DISubprogram(name: "erase", linkageName: "_ZNSt3__112basic_stringIcNS_11char_traitsIcEENS_9allocatorIcEEE5eraseENS_11__wrap_iterIPKcEES9_", scope: !5, file: !4, line: 1622, type: !539, isLocal: false, isDefinition: false, scopeLine: 1622, flags: DIFlagPublic | DIFlagPrototyped, isOptimized: false)
!539 = !DISubroutineType(types: !540)
!540 = !{!425, !370, !431, !431}
!541 = !DISubprogram(name: "replace", linkageName: "_ZNSt3__112basic_stringIcNS_11char_traitsIcEENS_9allocatorIcEEE7replaceEmmRKS5_", scope: !5, file: !4, line: 1625, type: !542, isLocal: false, isDefinition: false, scopeLine: 1625, flags: DIFlagPublic | DIFlagPrototyped, isOptimized: false)
!542 = !DISubroutineType(types: !543)
!543 = !{!415, !370, !92, !92, !380}
!544 = !DISubprogram(name: "replace", linkageName: "_ZNSt3__112basic_stringIcNS_11char_traitsIcEENS_9allocatorIcEEE7replaceEmmRKS5_mm", scope: !5, file: !4, line: 1626, type: !545, isLocal: false, isDefinition: false, scopeLine: 1626, flags: DIFlagPublic | DIFlagPrototyped, isOptimized: false)
!545 = !DISubroutineType(types: !546)
!546 = !{!415, !370, !92, !92, !380, !92, !92}
!547 = !DISubprogram(name: "replace", linkageName: "_ZNSt3__112basic_stringIcNS_11char_traitsIcEENS_9allocatorIcEEE7replaceEmmPKcm", scope: !5, file: !4, line: 1627, type: !548, isLocal: false, isDefinition: false, scopeLine: 1627, flags: DIFlagPublic | DIFlagPrototyped, isOptimized: false)
!548 = !DISubroutineType(types: !549)
!549 = !{!415, !370, !92, !92, !388, !92}
!550 = !DISubprogram(name: "replace", linkageName: "_ZNSt3__112basic_stringIcNS_11char_traitsIcEENS_9allocatorIcEEE7replaceEmmPKc", scope: !5, file: !4, line: 1628, type: !551, isLocal: false, isDefinition: false, scopeLine: 1628, flags: DIFlagPublic | DIFlagPrototyped, isOptimized: false)
!551 = !DISubroutineType(types: !552)
!552 = !{!415, !370, !92, !92, !388}
!553 = !DISubprogram(name: "replace", linkageName: "_ZNSt3__112basic_stringIcNS_11char_traitsIcEENS_9allocatorIcEEE7replaceEmmmc", scope: !5, file: !4, line: 1629, type: !554, isLocal: false, isDefinition: false, scopeLine: 1629, flags: DIFlagPublic | DIFlagPrototyped, isOptimized: false)
!554 = !DISubroutineType(types: !555)
!555 = !{!415, !370, !92, !92, !92, !214}
!556 = !DISubprogram(name: "replace", linkageName: "_ZNSt3__112basic_stringIcNS_11char_traitsIcEENS_9allocatorIcEEE7replaceENS_11__wrap_iterIPKcEES9_RKS5_", scope: !5, file: !4, line: 1631, type: !557, isLocal: false, isDefinition: false, scopeLine: 1631, flags: DIFlagPublic | DIFlagPrototyped, isOptimized: false)
!557 = !DISubroutineType(types: !558)
!558 = !{!415, !370, !431, !431, !380}
!559 = !DISubprogram(name: "replace", linkageName: "_ZNSt3__112basic_stringIcNS_11char_traitsIcEENS_9allocatorIcEEE7replaceENS_11__wrap_iterIPKcEES9_S8_m", scope: !5, file: !4, line: 1633, type: !560, isLocal: false, isDefinition: false, scopeLine: 1633, flags: DIFlagPublic | DIFlagPrototyped, isOptimized: false)
!560 = !DISubroutineType(types: !561)
!561 = !{!415, !370, !431, !431, !388, !92}
!562 = !DISubprogram(name: "replace", linkageName: "_ZNSt3__112basic_stringIcNS_11char_traitsIcEENS_9allocatorIcEEE7replaceENS_11__wrap_iterIPKcEES9_S8_", scope: !5, file: !4, line: 1635, type: !563, isLocal: false, isDefinition: false, scopeLine: 1635, flags: DIFlagPublic | DIFlagPrototyped, isOptimized: false)
!563 = !DISubroutineType(types: !564)
!564 = !{!415, !370, !431, !431, !388}
!565 = !DISubprogram(name: "replace", linkageName: "_ZNSt3__112basic_stringIcNS_11char_traitsIcEENS_9allocatorIcEEE7replaceENS_11__wrap_iterIPKcEES9_mc", scope: !5, file: !4, line: 1637, type: !566, isLocal: false, isDefinition: false, scopeLine: 1637, flags: DIFlagPublic | DIFlagPrototyped, isOptimized: false)
!566 = !DISubroutineType(types: !567)
!567 = !{!415, !370, !431, !431, !92, !214}
!568 = !DISubprogram(name: "copy", linkageName: "_ZNKSt3__112basic_stringIcNS_11char_traitsIcEENS_9allocatorIcEEE4copyEPcmm", scope: !5, file: !4, line: 1651, type: !569, isLocal: false, isDefinition: false, scopeLine: 1651, flags: DIFlagPublic | DIFlagPrototyped, isOptimized: false)
!569 = !DISubroutineType(types: !570)
!570 = !{!92, !433, !571, !92, !92}
!571 = !DIDerivedType(tag: DW_TAG_pointer_type, baseType: !214, size: 64, align: 64)
!572 = !DISubprogram(name: "substr", linkageName: "_ZNKSt3__112basic_stringIcNS_11char_traitsIcEENS_9allocatorIcEEE6substrEmm", scope: !5, file: !4, line: 1653, type: !573, isLocal: false, isDefinition: false, scopeLine: 1653, flags: DIFlagPublic | DIFlagPrototyped, isOptimized: false)
!573 = !DISubroutineType(types: !574)
!574 = !{!5, !433, !92, !92}
!575 = !DISubprogram(name: "swap", linkageName: "_ZNSt3__112basic_stringIcNS_11char_traitsIcEENS_9allocatorIcEEE4swapERS5_", scope: !5, file: !4, line: 1656, type: !576, isLocal: false, isDefinition: false, scopeLine: 1656, flags: DIFlagPublic | DIFlagPrototyped, isOptimized: false)
!576 = !DISubroutineType(types: !577)
!577 = !{null, !370, !415}
!578 = !DISubprogram(name: "c_str", linkageName: "_ZNKSt3__112basic_stringIcNS_11char_traitsIcEENS_9allocatorIcEEE5c_strEv", scope: !5, file: !4, line: 1665, type: !579, isLocal: false, isDefinition: false, scopeLine: 1665, flags: DIFlagPublic | DIFlagPrototyped, isOptimized: false)
!579 = !DISubroutineType(types: !580)
!580 = !{!388, !433}
!581 = !DISubprogram(name: "data", linkageName: "_ZNKSt3__112basic_stringIcNS_11char_traitsIcEENS_9allocatorIcEEE4dataEv", scope: !5, file: !4, line: 1667, type: !579, isLocal: false, isDefinition: false, scopeLine: 1667, flags: DIFlagPublic | DIFlagPrototyped, isOptimized: false)
!582 = !DISubprogram(name: "get_allocator", linkageName: "_ZNKSt3__112basic_stringIcNS_11char_traitsIcEENS_9allocatorIcEEE13get_allocatorEv", scope: !5, file: !4, line: 1674, type: !583, isLocal: false, isDefinition: false, scopeLine: 1674, flags: DIFlagPublic | DIFlagPrototyped, isOptimized: false)
!583 = !DISubroutineType(types: !584)
!584 = !{!376, !433}
!585 = !DISubprogram(name: "find", linkageName: "_ZNKSt3__112basic_stringIcNS_11char_traitsIcEENS_9allocatorIcEEE4findERKS5_m", scope: !5, file: !4, line: 1677, type: !586, isLocal: false, isDefinition: false, scopeLine: 1677, flags: DIFlagPublic | DIFlagPrototyped, isOptimized: false)
!586 = !DISubroutineType(types: !587)
!587 = !{!92, !433, !380, !92}
!588 = !DISubprogram(name: "find", linkageName: "_ZNKSt3__112basic_stringIcNS_11char_traitsIcEENS_9allocatorIcEEE4findEPKcmm", scope: !5, file: !4, line: 1678, type: !589, isLocal: false, isDefinition: false, scopeLine: 1678, flags: DIFlagPublic | DIFlagPrototyped, isOptimized: false)
!589 = !DISubroutineType(types: !590)
!590 = !{!92, !433, !388, !92, !92}
!591 = !DISubprogram(name: "find", linkageName: "_ZNKSt3__112basic_stringIcNS_11char_traitsIcEENS_9allocatorIcEEE4findEPKcm", scope: !5, file: !4, line: 1680, type: !592, isLocal: false, isDefinition: false, scopeLine: 1680, flags: DIFlagPublic | DIFlagPrototyped, isOptimized: false)
!592 = !DISubroutineType(types: !593)
!593 = !{!92, !433, !388, !92}
!594 = !DISubprogram(name: "find", linkageName: "_ZNKSt3__112basic_stringIcNS_11char_traitsIcEENS_9allocatorIcEEE4findEcm", scope: !5, file: !4, line: 1681, type: !595, isLocal: false, isDefinition: false, scopeLine: 1681, flags: DIFlagPublic | DIFlagPrototyped, isOptimized: false)
!595 = !DISubroutineType(types: !596)
!596 = !{!92, !433, !214, !92}
!597 = !DISubprogram(name: "rfind", linkageName: "_ZNKSt3__112basic_stringIcNS_11char_traitsIcEENS_9allocatorIcEEE5rfindERKS5_m", scope: !5, file: !4, line: 1684, type: !586, isLocal: false, isDefinition: false, scopeLine: 1684, flags: DIFlagPublic | DIFlagPrototyped, isOptimized: false)
!598 = !DISubprogram(name: "rfind", linkageName: "_ZNKSt3__112basic_stringIcNS_11char_traitsIcEENS_9allocatorIcEEE5rfindEPKcmm", scope: !5, file: !4, line: 1685, type: !589, isLocal: false, isDefinition: false, scopeLine: 1685, flags: DIFlagPublic | DIFlagPrototyped, isOptimized: false)
!599 = !DISubprogram(name: "rfind", linkageName: "_ZNKSt3__112basic_stringIcNS_11char_traitsIcEENS_9allocatorIcEEE5rfindEPKcm", scope: !5, file: !4, line: 1687, type: !592, isLocal: false, isDefinition: false, scopeLine: 1687, flags: DIFlagPublic | DIFlagPrototyped, isOptimized: false)
!600 = !DISubprogram(name: "rfind", linkageName: "_ZNKSt3__112basic_stringIcNS_11char_traitsIcEENS_9allocatorIcEEE5rfindEcm", scope: !5, file: !4, line: 1688, type: !595, isLocal: false, isDefinition: false, scopeLine: 1688, flags: DIFlagPublic | DIFlagPrototyped, isOptimized: false)
!601 = !DISubprogram(name: "find_first_of", linkageName: "_ZNKSt3__112basic_stringIcNS_11char_traitsIcEENS_9allocatorIcEEE13find_first_ofERKS5_m", scope: !5, file: !4, line: 1691, type: !586, isLocal: false, isDefinition: false, scopeLine: 1691, flags: DIFlagPublic | DIFlagPrototyped, isOptimized: false)
!602 = !DISubprogram(name: "find_first_of", linkageName: "_ZNKSt3__112basic_stringIcNS_11char_traitsIcEENS_9allocatorIcEEE13find_first_ofEPKcmm", scope: !5, file: !4, line: 1692, type: !589, isLocal: false, isDefinition: false, scopeLine: 1692, flags: DIFlagPublic | DIFlagPrototyped, isOptimized: false)
!603 = !DISubprogram(name: "find_first_of", linkageName: "_ZNKSt3__112basic_stringIcNS_11char_traitsIcEENS_9allocatorIcEEE13find_first_ofEPKcm", scope: !5, file: !4, line: 1694, type: !592, isLocal: false, isDefinition: false, scopeLine: 1694, flags: DIFlagPublic | DIFlagPrototyped, isOptimized: false)
!604 = !DISubprogram(name: "find_first_of", linkageName: "_ZNKSt3__112basic_stringIcNS_11char_traitsIcEENS_9allocatorIcEEE13find_first_ofEcm", scope: !5, file: !4, line: 1696, type: !595, isLocal: false, isDefinition: false, scopeLine: 1696, flags: DIFlagPublic | DIFlagPrototyped, isOptimized: false)
!605 = !DISubprogram(name: "find_last_of", linkageName: "_ZNKSt3__112basic_stringIcNS_11char_traitsIcEENS_9allocatorIcEEE12find_last_ofERKS5_m", scope: !5, file: !4, line: 1699, type: !586, isLocal: false, isDefinition: false, scopeLine: 1699, flags: DIFlagPublic | DIFlagPrototyped, isOptimized: false)
!606 = !DISubprogram(name: "find_last_of", linkageName: "_ZNKSt3__112basic_stringIcNS_11char_traitsIcEENS_9allocatorIcEEE12find_last_ofEPKcmm", scope: !5, file: !4, line: 1700, type: !589, isLocal: false, isDefinition: false, scopeLine: 1700, flags: DIFlagPublic | DIFlagPrototyped, isOptimized: false)
!607 = !DISubprogram(name: "find_last_of", linkageName: "_ZNKSt3__112basic_stringIcNS_11char_traitsIcEENS_9allocatorIcEEE12find_last_ofEPKcm", scope: !5, file: !4, line: 1702, type: !592, isLocal: false, isDefinition: false, scopeLine: 1702, flags: DIFlagPublic | DIFlagPrototyped, isOptimized: false)
!608 = !DISubprogram(name: "find_last_of", linkageName: "_ZNKSt3__112basic_stringIcNS_11char_traitsIcEENS_9allocatorIcEEE12find_last_ofEcm", scope: !5, file: !4, line: 1704, type: !595, isLocal: false, isDefinition: false, scopeLine: 1704, flags: DIFlagPublic | DIFlagPrototyped, isOptimized: false)
!609 = !DISubprogram(name: "find_first_not_of", linkageName: "_ZNKSt3__112basic_stringIcNS_11char_traitsIcEENS_9allocatorIcEEE17find_first_not_ofERKS5_m", scope: !5, file: !4, line: 1707, type: !586, isLocal: false, isDefinition: false, scopeLine: 1707, flags: DIFlagPublic | DIFlagPrototyped, isOptimized: false)
!610 = !DISubprogram(name: "find_first_not_of", linkageName: "_ZNKSt3__112basic_stringIcNS_11char_traitsIcEENS_9allocatorIcEEE17find_first_not_ofEPKcmm", scope: !5, file: !4, line: 1708, type: !589, isLocal: false, isDefinition: false, scopeLine: 1708, flags: DIFlagPublic | DIFlagPrototyped, isOptimized: false)
!611 = !DISubprogram(name: "find_first_not_of", linkageName: "_ZNKSt3__112basic_stringIcNS_11char_traitsIcEENS_9allocatorIcEEE17find_first_not_ofEPKcm", scope: !5, file: !4, line: 1710, type: !592, isLocal: false, isDefinition: false, scopeLine: 1710, flags: DIFlagPublic | DIFlagPrototyped, isOptimized: false)
!612 = !DISubprogram(name: "find_first_not_of", linkageName: "_ZNKSt3__112basic_stringIcNS_11char_traitsIcEENS_9allocatorIcEEE17find_first_not_ofEcm", scope: !5, file: !4, line: 1712, type: !595, isLocal: false, isDefinition: false, scopeLine: 1712, flags: DIFlagPublic | DIFlagPrototyped, isOptimized: false)
!613 = !DISubprogram(name: "find_last_not_of", linkageName: "_ZNKSt3__112basic_stringIcNS_11char_traitsIcEENS_9allocatorIcEEE16find_last_not_ofERKS5_m", scope: !5, file: !4, line: 1715, type: !586, isLocal: false, isDefinition: false, scopeLine: 1715, flags: DIFlagPublic | DIFlagPrototyped, isOptimized: false)
!614 = !DISubprogram(name: "find_last_not_of", linkageName: "_ZNKSt3__112basic_stringIcNS_11char_traitsIcEENS_9allocatorIcEEE16find_last_not_ofEPKcmm", scope: !5, file: !4, line: 1716, type: !589, isLocal: false, isDefinition: false, scopeLine: 1716, flags: DIFlagPublic | DIFlagPrototyped, isOptimized: false)
!615 = !DISubprogram(name: "find_last_not_of", linkageName: "_ZNKSt3__112basic_stringIcNS_11char_traitsIcEENS_9allocatorIcEEE16find_last_not_ofEPKcm", scope: !5, file: !4, line: 1718, type: !592, isLocal: false, isDefinition: false, scopeLine: 1718, flags: DIFlagPublic | DIFlagPrototyped, isOptimized: false)
!616 = !DISubprogram(name: "find_last_not_of", linkageName: "_ZNKSt3__112basic_stringIcNS_11char_traitsIcEENS_9allocatorIcEEE16find_last_not_ofEcm", scope: !5, file: !4, line: 1720, type: !595, isLocal: false, isDefinition: false, scopeLine: 1720, flags: DIFlagPublic | DIFlagPrototyped, isOptimized: false)
!617 = !DISubprogram(name: "compare", linkageName: "_ZNKSt3__112basic_stringIcNS_11char_traitsIcEENS_9allocatorIcEEE7compareERKS5_", scope: !5, file: !4, line: 1723, type: !618, isLocal: false, isDefinition: false, scopeLine: 1723, flags: DIFlagPublic | DIFlagPrototyped, isOptimized: false)
!618 = !DISubroutineType(types: !619)
!619 = !{!231, !433, !380}
!620 = !DISubprogram(name: "compare", linkageName: "_ZNKSt3__112basic_stringIcNS_11char_traitsIcEENS_9allocatorIcEEE7compareEmmRKS5_", scope: !5, file: !4, line: 1725, type: !621, isLocal: false, isDefinition: false, scopeLine: 1725, flags: DIFlagPublic | DIFlagPrototyped, isOptimized: false)
!621 = !DISubroutineType(types: !622)
!622 = !{!231, !433, !92, !92, !380}
!623 = !DISubprogram(name: "compare", linkageName: "_ZNKSt3__112basic_stringIcNS_11char_traitsIcEENS_9allocatorIcEEE7compareEmmRKS5_mm", scope: !5, file: !4, line: 1726, type: !624, isLocal: false, isDefinition: false, scopeLine: 1726, flags: DIFlagPublic | DIFlagPrototyped, isOptimized: false)
!624 = !DISubroutineType(types: !625)
!625 = !{!231, !433, !92, !92, !380, !92, !92}
!626 = !DISubprogram(name: "compare", linkageName: "_ZNKSt3__112basic_stringIcNS_11char_traitsIcEENS_9allocatorIcEEE7compareEPKc", scope: !5, file: !4, line: 1727, type: !627, isLocal: false, isDefinition: false, scopeLine: 1727, flags: DIFlagPublic | DIFlagPrototyped, isOptimized: false)
!627 = !DISubroutineType(types: !628)
!628 = !{!231, !433, !388}
!629 = !DISubprogram(name: "compare", linkageName: "_ZNKSt3__112basic_stringIcNS_11char_traitsIcEENS_9allocatorIcEEE7compareEmmPKc", scope: !5, file: !4, line: 1728, type: !630, isLocal: false, isDefinition: false, scopeLine: 1728, flags: DIFlagPublic | DIFlagPrototyped, isOptimized: false)
!630 = !DISubroutineType(types: !631)
!631 = !{!231, !433, !92, !92, !388}
!632 = !DISubprogram(name: "compare", linkageName: "_ZNKSt3__112basic_stringIcNS_11char_traitsIcEENS_9allocatorIcEEE7compareEmmPKcm", scope: !5, file: !4, line: 1729, type: !633, isLocal: false, isDefinition: false, scopeLine: 1729, flags: DIFlagPublic | DIFlagPrototyped, isOptimized: false)
!633 = !DISubroutineType(types: !634)
!634 = !{!231, !433, !92, !92, !388, !92}
!635 = !DISubprogram(name: "__invariants", linkageName: "_ZNKSt3__112basic_stringIcNS_11char_traitsIcEENS_9allocatorIcEEE12__invariantsEv", scope: !5, file: !4, line: 1731, type: !466, isLocal: false, isDefinition: false, scopeLine: 1731, flags: DIFlagPublic | DIFlagPrototyped, isOptimized: false)
!636 = !DISubprogram(name: "__is_long", linkageName: "_ZNKSt3__112basic_stringIcNS_11char_traitsIcEENS_9allocatorIcEEE9__is_longEv", scope: !5, file: !4, line: 1734, type: !466, isLocal: false, isDefinition: false, scopeLine: 1734, flags: DIFlagPublic | DIFlagPrototyped, isOptimized: false)
!637 = !DISubprogram(name: "__alloc", linkageName: "_ZNSt3__112basic_stringIcNS_11char_traitsIcEENS_9allocatorIcEEE7__allocEv", scope: !5, file: !4, line: 1748, type: !638, isLocal: false, isDefinition: false, scopeLine: 1748, flags: DIFlagPrototyped, isOptimized: false)
!638 = !DISubroutineType(types: !639)
!639 = !{!640, !370}
!640 = !DIDerivedType(tag: DW_TAG_reference_type, baseType: !376, size: 64, align: 64)
!641 = !DISubprogram(name: "__alloc", linkageName: "_ZNKSt3__112basic_stringIcNS_11char_traitsIcEENS_9allocatorIcEEE7__allocEv", scope: !5, file: !4, line: 1751, type: !642, isLocal: false, isDefinition: false, scopeLine: 1751, flags: DIFlagPrototyped, isOptimized: false)
!642 = !DISubroutineType(types: !643)
!643 = !{!374, !433}
!644 = !DISubprogram(name: "__set_short_size", linkageName: "_ZNSt3__112basic_stringIcNS_11char_traitsIcEENS_9allocatorIcEEE16__set_short_sizeEm", scope: !5, file: !4, line: 1775, type: !460, isLocal: false, isDefinition: false, scopeLine: 1775, flags: DIFlagPrototyped, isOptimized: false)
!645 = !DISubprogram(name: "__get_short_size", linkageName: "_ZNKSt3__112basic_stringIcNS_11char_traitsIcEENS_9allocatorIcEEE16__get_short_sizeEv", scope: !5, file: !4, line: 1783, type: !453, isLocal: false, isDefinition: false, scopeLine: 1783, flags: DIFlagPrototyped, isOptimized: false)
!646 = !DISubprogram(name: "__set_long_size", linkageName: "_ZNSt3__112basic_stringIcNS_11char_traitsIcEENS_9allocatorIcEEE15__set_long_sizeEm", scope: !5, file: !4, line: 1793, type: !460, isLocal: false, isDefinition: false, scopeLine: 1793, flags: DIFlagPrototyped, isOptimized: false)
!647 = !DISubprogram(name: "__get_long_size", linkageName: "_ZNKSt3__112basic_stringIcNS_11char_traitsIcEENS_9allocatorIcEEE15__get_long_sizeEv", scope: !5, file: !4, line: 1796, type: !453, isLocal: false, isDefinition: false, scopeLine: 1796, flags: DIFlagPrototyped, isOptimized: false)
!648 = !DISubprogram(name: "__set_size", linkageName: "_ZNSt3__112basic_stringIcNS_11char_traitsIcEENS_9allocatorIcEEE10__set_sizeEm", scope: !5, file: !4, line: 1799, type: !460, isLocal: false, isDefinition: false, scopeLine: 1799, flags: DIFlagPrototyped, isOptimized: false)
!649 = !DISubprogram(name: "__set_long_cap", linkageName: "_ZNSt3__112basic_stringIcNS_11char_traitsIcEENS_9allocatorIcEEE14__set_long_capEm", scope: !5, file: !4, line: 1803, type: !460, isLocal: false, isDefinition: false, scopeLine: 1803, flags: DIFlagPrototyped, isOptimized: false)
!650 = !DISubprogram(name: "__get_long_cap", linkageName: "_ZNKSt3__112basic_stringIcNS_11char_traitsIcEENS_9allocatorIcEEE14__get_long_capEv", scope: !5, file: !4, line: 1806, type: !453, isLocal: false, isDefinition: false, scopeLine: 1806, flags: DIFlagPrototyped, isOptimized: false)
!651 = !DISubprogram(name: "__set_long_pointer", linkageName: "_ZNSt3__112basic_stringIcNS_11char_traitsIcEENS_9allocatorIcEEE18__set_long_pointerEPc", scope: !5, file: !4, line: 1810, type: !652, isLocal: false, isDefinition: false, scopeLine: 1810, flags: DIFlagPrototyped, isOptimized: false)
!652 = !DISubroutineType(types: !653)
!653 = !{null, !370, !204}
!654 = !DISubprogram(name: "__get_long_pointer", linkageName: "_ZNSt3__112basic_stringIcNS_11char_traitsIcEENS_9allocatorIcEEE18__get_long_pointerEv", scope: !5, file: !4, line: 1813, type: !655, isLocal: false, isDefinition: false, scopeLine: 1813, flags: DIFlagPrototyped, isOptimized: false)
!655 = !DISubroutineType(types: !656)
!656 = !{!204, !370}
!657 = !DISubprogram(name: "__get_long_pointer", linkageName: "_ZNKSt3__112basic_stringIcNS_11char_traitsIcEENS_9allocatorIcEEE18__get_long_pointerEv", scope: !5, file: !4, line: 1816, type: !658, isLocal: false, isDefinition: false, scopeLine: 1816, flags: DIFlagPrototyped, isOptimized: false)
!658 = !DISubroutineType(types: !659)
!659 = !{!660, !433}
!660 = !DIDerivedType(tag: DW_TAG_typedef, name: "const_pointer", scope: !5, file: !4, line: 1261, baseType: !661)
!661 = !DIDerivedType(tag: DW_TAG_typedef, name: "const_pointer", scope: !94, file: !24, line: 1461, baseType: !662)
!662 = !DIDerivedType(tag: DW_TAG_typedef, name: "type", scope: !663, file: !24, line: 997, baseType: !49)
!663 = distinct !DICompositeType(tag: DW_TAG_structure_type, name: "__const_pointer<char, char *, std::__1::allocator<char>, true>", scope: !6, file: !24, line: 995, size: 8, align: 8, elements: !65, templateParams: !664, identifier: "_ZTSNSt3__115__const_pointerIcPcNS_9allocatorIcEELb1EEE")
!664 = !{!81, !117, !118, !20}
!665 = !DISubprogram(name: "__get_short_pointer", linkageName: "_ZNSt3__112basic_stringIcNS_11char_traitsIcEENS_9allocatorIcEEE19__get_short_pointerEv", scope: !5, file: !4, line: 1819, type: !655, isLocal: false, isDefinition: false, scopeLine: 1819, flags: DIFlagPrototyped, isOptimized: false)
!666 = !DISubprogram(name: "__get_short_pointer", linkageName: "_ZNKSt3__112basic_stringIcNS_11char_traitsIcEENS_9allocatorIcEEE19__get_short_pointerEv", scope: !5, file: !4, line: 1822, type: !658, isLocal: false, isDefinition: false, scopeLine: 1822, flags: DIFlagPrototyped, isOptimized: false)
!667 = !DISubprogram(name: "__get_pointer", linkageName: "_ZNSt3__112basic_stringIcNS_11char_traitsIcEENS_9allocatorIcEEE13__get_pointerEv", scope: !5, file: !4, line: 1825, type: !655, isLocal: false, isDefinition: false, scopeLine: 1825, flags: DIFlagPrototyped, isOptimized: false)
!668 = !DISubprogram(name: "__get_pointer", linkageName: "_ZNKSt3__112basic_stringIcNS_11char_traitsIcEENS_9allocatorIcEEE13__get_pointerEv", scope: !5, file: !4, line: 1828, type: !658, isLocal: false, isDefinition: false, scopeLine: 1828, flags: DIFlagPrototyped, isOptimized: false)
!669 = !DISubprogram(name: "__zero", linkageName: "_ZNSt3__112basic_stringIcNS_11char_traitsIcEENS_9allocatorIcEEE6__zeroEv", scope: !5, file: !4, line: 1832, type: !368, isLocal: false, isDefinition: false, scopeLine: 1832, flags: DIFlagPrototyped, isOptimized: false)
!670 = !DISubprogram(name: "__recommend", linkageName: "_ZNSt3__112basic_stringIcNS_11char_traitsIcEENS_9allocatorIcEEE11__recommendEm", scope: !5, file: !4, line: 1845, type: !671, isLocal: false, isDefinition: false, scopeLine: 1845, flags: DIFlagPrototyped, isOptimized: false)
!671 = !DISubroutineType(types: !672)
!672 = !{!92, !92}
!673 = !DISubprogram(name: "__init", linkageName: "_ZNSt3__112basic_stringIcNS_11char_traitsIcEENS_9allocatorIcEEE6__initEPKcmm", scope: !5, file: !4, line: 1850, type: !674, isLocal: false, isDefinition: false, scopeLine: 1850, flags: DIFlagPrototyped, isOptimized: false)
!674 = !DISubroutineType(types: !675)
!675 = !{null, !370, !388, !92, !92}
!676 = !DISubprogram(name: "__init", linkageName: "_ZNSt3__112basic_stringIcNS_11char_traitsIcEENS_9allocatorIcEEE6__initEPKcm", scope: !5, file: !4, line: 1851, type: !394, isLocal: false, isDefinition: false, scopeLine: 1851, flags: DIFlagPrototyped, isOptimized: false)
!677 = !DISubprogram(name: "__init", linkageName: "_ZNSt3__112basic_stringIcNS_11char_traitsIcEENS_9allocatorIcEEE6__initEmc", scope: !5, file: !4, line: 1852, type: !400, isLocal: false, isDefinition: false, scopeLine: 1852, flags: DIFlagPrototyped, isOptimized: false)
!678 = !DISubprogram(name: "__grow_by", linkageName: "_ZNSt3__112basic_stringIcNS_11char_traitsIcEENS_9allocatorIcEEE9__grow_byEmmmmmm", scope: !5, file: !4, line: 1870, type: !679, isLocal: false, isDefinition: false, scopeLine: 1870, flags: DIFlagPrototyped, isOptimized: false)
!679 = !DISubroutineType(types: !680)
!680 = !{null, !370, !92, !92, !92, !92, !92, !92}
!681 = !DISubprogram(name: "__grow_by_and_replace", linkageName: "_ZNSt3__112basic_stringIcNS_11char_traitsIcEENS_9allocatorIcEEE21__grow_by_and_replaceEmmmmmmPKc", scope: !5, file: !4, line: 1872, type: !682, isLocal: false, isDefinition: false, scopeLine: 1872, flags: DIFlagPrototyped, isOptimized: false)
!682 = !DISubroutineType(types: !683)
!683 = !{null, !370, !92, !92, !92, !92, !92, !92, !388}
!684 = !DISubprogram(name: "__erase_to_end", linkageName: "_ZNSt3__112basic_stringIcNS_11char_traitsIcEENS_9allocatorIcEEE14__erase_to_endEm", scope: !5, file: !4, line: 1877, type: !460, isLocal: false, isDefinition: false, scopeLine: 1877, flags: DIFlagPrototyped, isOptimized: false)
!685 = !DISubprogram(name: "__copy_assign_alloc", linkageName: "_ZNSt3__112basic_stringIcNS_11char_traitsIcEENS_9allocatorIcEEE19__copy_assign_allocERKS5_", scope: !5, file: !4, line: 1880, type: !378, isLocal: false, isDefinition: false, scopeLine: 1880, flags: DIFlagPrototyped, isOptimized: false)
!686 = !DISubprogram(name: "__copy_assign_alloc", linkageName: "_ZNSt3__112basic_stringIcNS_11char_traitsIcEENS_9allocatorIcEEE19__copy_assign_allocERKS5_NS_17integral_constantIbLb1EEE", scope: !5, file: !4, line: 1885, type: !687, isLocal: false, isDefinition: false, scopeLine: 1885, flags: DIFlagPrototyped, isOptimized: false)
!687 = !DISubroutineType(types: !688)
!688 = !{null, !370, !380, !154}
!689 = !DISubprogram(name: "__copy_assign_alloc", linkageName: "_ZNSt3__112basic_stringIcNS_11char_traitsIcEENS_9allocatorIcEEE19__copy_assign_allocERKS5_NS_17integral_constantIbLb0EEE", scope: !5, file: !4, line: 1896, type: !690, isLocal: false, isDefinition: false, scopeLine: 1896, flags: DIFlagPrototyped, isOptimized: false)
!690 = !DISubroutineType(types: !691)
!691 = !{null, !370, !380, !171}
!692 = !DISubprogram(name: "__move_assign_alloc", linkageName: "_ZNSt3__112basic_stringIcNS_11char_traitsIcEENS_9allocatorIcEEE19__move_assign_allocERS5_", scope: !5, file: !4, line: 1914, type: !576, isLocal: false, isDefinition: false, scopeLine: 1914, flags: DIFlagPrototyped, isOptimized: false)
!693 = !DISubprogram(name: "__move_assign_alloc", linkageName: "_ZNSt3__112basic_stringIcNS_11char_traitsIcEENS_9allocatorIcEEE19__move_assign_allocERS5_NS_17integral_constantIbLb1EEE", scope: !5, file: !4, line: 1922, type: !694, isLocal: false, isDefinition: false, scopeLine: 1922, flags: DIFlagPrototyped, isOptimized: false)
!694 = !DISubroutineType(types: !695)
!695 = !{null, !370, !415, !154}
!696 = !DISubprogram(name: "__move_assign_alloc", linkageName: "_ZNSt3__112basic_stringIcNS_11char_traitsIcEENS_9allocatorIcEEE19__move_assign_allocERS5_NS_17integral_constantIbLb0EEE", scope: !5, file: !4, line: 1929, type: !697, isLocal: false, isDefinition: false, scopeLine: 1929, flags: DIFlagPrototyped, isOptimized: false)
!697 = !DISubroutineType(types: !698)
!698 = !{null, !370, !415, !171}
!699 = !DISubprogram(name: "__invalidate_all_iterators", linkageName: "_ZNSt3__112basic_stringIcNS_11char_traitsIcEENS_9allocatorIcEEE26__invalidate_all_iteratorsEv", scope: !5, file: !4, line: 1933, type: !368, isLocal: false, isDefinition: false, scopeLine: 1933, flags: DIFlagPrototyped, isOptimized: false)
!700 = !DISubprogram(name: "__invalidate_iterators_past", linkageName: "_ZNSt3__112basic_stringIcNS_11char_traitsIcEENS_9allocatorIcEEE27__invalidate_iterators_pastEm", scope: !5, file: !4, line: 1934, type: !460, isLocal: false, isDefinition: false, scopeLine: 1934, flags: DIFlagPrototyped, isOptimized: false)
!701 = !{!264, !702, !703}
!702 = !DITemplateTypeParameter(name: "_Traits", type: !216)
!703 = !DITemplateTypeParameter(name: "_Allocator", type: !30)
!704 = !{!705}
!705 = !DIEnumerator(name: "__short_mask", value: 1)
!706 = !{!62, !21, !5}
!707 = !{!708, !709, !715, !717, !721, !725, !727, !729, !733, !737, !741, !743, !747, !752, !756, !760, !762, !764, !766, !768, !770, !772, !776, !780, !834, !835, !836, !841, !843, !847, !851, !855, !857, !861, !865, !869, !880, !882, !886, !890, !894, !896, !900, !904, !908, !910, !912, !914, !918, !922, !927, !931, !937, !941, !945, !947, !949, !951, !955, !959, !963, !967, !969, !973, !977, !981, !983, !987, !991, !993, !997, !999, !1001, !1004, !1006, !1008, !1010, !1012, !1014, !1016, !1018, !1020, !1022, !1024, !1026, !1028, !1030, !1034, !1039, !1044, !1049, !1051, !1054, !1056, !1058, !1060, !1062, !1064, !1066, !1068, !1070, !1072, !1076, !1080, !1084, !1086, !1090, !1094, !1106, !1107, !1122, !1123, !1124, !1132, !1134, !1139, !1143, !1147, !1151, !1153, !1157, !1161, !1165, !1169, !1173, !1177, !1179, !1181, !1185, !1191, !1196, !1201, !1205, !1209, !1213, !1218, !1222, !1226, !1228, !1230, !1234, !1236, !1240, !1244, !1249, !1251, !1253, !1255, !1259, !1263, !1267, !1269, !1273, !1275, !1277, !1279, !1281, !1287, !1291, !1293, !1299, !1304, !1308, !1312, !1317, !1322, !1326, !1330, !1334, !1338, !1340, !1342, !1345, !1346, !1350, !1353, !1356, !1359, !1362, !1366, !1369, !1372, !1375, !1377, !1379, !1381, !1383, !1385, !1387, !1389, !1391, !1393, !1395, !1397, !1399, !1401, !1403, !1405, !1409, !1412, !1415}
!708 = !DIImportedEntity(tag: DW_TAG_imported_declaration, scope: !6, entity: !58, line: 69)
!709 = !DIImportedEntity(tag: DW_TAG_imported_declaration, scope: !6, entity: !710, line: 70)
!710 = !DISubprogram(name: "memcpy", scope: !711, file: !711, line: 72, type: !712, isLocal: false, isDefinition: false, flags: DIFlagPrototyped, isOptimized: false)
!711 = !DIFile(filename: "/usr/include/string.h", directory: "/usr/local/mull/mull/lab/simple_test/mutation_operators/and_or_replacement_cpp")
!712 = !DISubroutineType(types: !713)
!713 = !{!714, !714, !68, !58}
!714 = !DIDerivedType(tag: DW_TAG_pointer_type, baseType: null, size: 64, align: 64)
!715 = !DIImportedEntity(tag: DW_TAG_imported_declaration, scope: !6, entity: !716, line: 71)
!716 = !DISubprogram(name: "memmove", scope: !711, file: !711, line: 73, type: !712, isLocal: false, isDefinition: false, flags: DIFlagPrototyped, isOptimized: false)
!717 = !DIImportedEntity(tag: DW_TAG_imported_declaration, scope: !6, entity: !718, line: 72)
!718 = !DISubprogram(name: "strcpy", scope: !711, file: !711, line: 79, type: !719, isLocal: false, isDefinition: false, flags: DIFlagPrototyped, isOptimized: false)
!719 = !DISubroutineType(types: !720)
!720 = !{!40, !40, !50}
!721 = !DIImportedEntity(tag: DW_TAG_imported_declaration, scope: !6, entity: !722, line: 73)
!722 = !DISubprogram(name: "strncpy", scope: !711, file: !711, line: 85, type: !723, isLocal: false, isDefinition: false, flags: DIFlagPrototyped, isOptimized: false)
!723 = !DISubroutineType(types: !724)
!724 = !{!40, !40, !50, !58}
!725 = !DIImportedEntity(tag: DW_TAG_imported_declaration, scope: !6, entity: !726, line: 74)
!726 = !DISubprogram(name: "strcat", scope: !711, file: !711, line: 75, type: !719, isLocal: false, isDefinition: false, flags: DIFlagPrototyped, isOptimized: false)
!727 = !DIImportedEntity(tag: DW_TAG_imported_declaration, scope: !6, entity: !728, line: 75)
!728 = !DISubprogram(name: "strncat", scope: !711, file: !711, line: 83, type: !723, isLocal: false, isDefinition: false, flags: DIFlagPrototyped, isOptimized: false)
!729 = !DIImportedEntity(tag: DW_TAG_imported_declaration, scope: !6, entity: !730, line: 76)
!730 = !DISubprogram(name: "memcmp", scope: !711, file: !711, line: 71, type: !731, isLocal: false, isDefinition: false, flags: DIFlagPrototyped, isOptimized: false)
!731 = !DISubroutineType(types: !732)
!732 = !{!231, !68, !68, !58}
!733 = !DIImportedEntity(tag: DW_TAG_imported_declaration, scope: !6, entity: !734, line: 77)
!734 = !DISubprogram(name: "strcmp", scope: !711, file: !711, line: 77, type: !735, isLocal: false, isDefinition: false, flags: DIFlagPrototyped, isOptimized: false)
!735 = !DISubroutineType(types: !736)
!736 = !{!231, !50, !50}
!737 = !DIImportedEntity(tag: DW_TAG_imported_declaration, scope: !6, entity: !738, line: 78)
!738 = !DISubprogram(name: "strncmp", scope: !711, file: !711, line: 84, type: !739, isLocal: false, isDefinition: false, flags: DIFlagPrototyped, isOptimized: false)
!739 = !DISubroutineType(types: !740)
!740 = !{!231, !50, !50, !58}
!741 = !DIImportedEntity(tag: DW_TAG_imported_declaration, scope: !6, entity: !742, line: 79)
!742 = !DISubprogram(name: "strcoll", scope: !711, file: !711, line: 78, type: !735, isLocal: false, isDefinition: false, flags: DIFlagPrototyped, isOptimized: false)
!743 = !DIImportedEntity(tag: DW_TAG_imported_declaration, scope: !6, entity: !744, line: 80)
!744 = !DISubprogram(name: "strxfrm", scope: !711, file: !711, line: 91, type: !745, isLocal: false, isDefinition: false, flags: DIFlagPrototyped, isOptimized: false)
!745 = !DISubroutineType(types: !746)
!746 = !{!58, !40, !50, !58}
!747 = !DIImportedEntity(tag: DW_TAG_imported_declaration, scope: !6, entity: !748, line: 81)
!748 = !DISubprogram(name: "memchr", linkageName: "_Z6memchrUa9enable_ifIXLb1EEEPvim", scope: !749, file: !749, line: 99, type: !750, isLocal: false, isDefinition: false, flags: DIFlagPrototyped, isOptimized: false)
!749 = !DIFile(filename: "/usr/local/Cellar/llvm@3.9/3.9.1/bin/../include/c++/v1/string.h", directory: "/usr/local/mull/mull/lab/simple_test/mutation_operators/and_or_replacement_cpp")
!750 = !DISubroutineType(types: !751)
!751 = !{!714, !714, !231, !58}
!752 = !DIImportedEntity(tag: DW_TAG_imported_declaration, scope: !6, entity: !753, line: 82)
!753 = !DISubprogram(name: "strchr", linkageName: "_Z6strchrUa9enable_ifIXLb1EEEPci", scope: !749, file: !749, line: 78, type: !754, isLocal: false, isDefinition: false, flags: DIFlagPrototyped, isOptimized: false)
!754 = !DISubroutineType(types: !755)
!755 = !{!40, !40, !231}
!756 = !DIImportedEntity(tag: DW_TAG_imported_declaration, scope: !6, entity: !757, line: 83)
!757 = !DISubprogram(name: "strcspn", scope: !711, file: !711, line: 80, type: !758, isLocal: false, isDefinition: false, flags: DIFlagPrototyped, isOptimized: false)
!758 = !DISubroutineType(types: !759)
!759 = !{!58, !50, !50}
!760 = !DIImportedEntity(tag: DW_TAG_imported_declaration, scope: !6, entity: !761, line: 84)
!761 = !DISubprogram(name: "strpbrk", linkageName: "_Z7strpbrkUa9enable_ifIXLb1EEEPcPKc", scope: !749, file: !749, line: 85, type: !719, isLocal: false, isDefinition: false, flags: DIFlagPrototyped, isOptimized: false)
!762 = !DIImportedEntity(tag: DW_TAG_imported_declaration, scope: !6, entity: !763, line: 85)
!763 = !DISubprogram(name: "strrchr", linkageName: "_Z7strrchrUa9enable_ifIXLb1EEEPci", scope: !749, file: !749, line: 92, type: !754, isLocal: false, isDefinition: false, flags: DIFlagPrototyped, isOptimized: false)
!764 = !DIImportedEntity(tag: DW_TAG_imported_declaration, scope: !6, entity: !765, line: 86)
!765 = !DISubprogram(name: "strspn", scope: !711, file: !711, line: 88, type: !758, isLocal: false, isDefinition: false, flags: DIFlagPrototyped, isOptimized: false)
!766 = !DIImportedEntity(tag: DW_TAG_imported_declaration, scope: !6, entity: !767, line: 87)
!767 = !DISubprogram(name: "strstr", linkageName: "_Z6strstrUa9enable_ifIXLb1EEEPcPKc", scope: !749, file: !749, line: 106, type: !719, isLocal: false, isDefinition: false, flags: DIFlagPrototyped, isOptimized: false)
!768 = !DIImportedEntity(tag: DW_TAG_imported_declaration, scope: !6, entity: !769, line: 89)
!769 = !DISubprogram(name: "strtok", scope: !711, file: !711, line: 90, type: !719, isLocal: false, isDefinition: false, flags: DIFlagPrototyped, isOptimized: false)
!770 = !DIImportedEntity(tag: DW_TAG_imported_declaration, scope: !6, entity: !771, line: 91)
!771 = !DISubprogram(name: "memset", scope: !711, file: !711, line: 74, type: !750, isLocal: false, isDefinition: false, flags: DIFlagPrototyped, isOptimized: false)
!772 = !DIImportedEntity(tag: DW_TAG_imported_declaration, scope: !6, entity: !773, line: 92)
!773 = !DISubprogram(name: "strerror", linkageName: "\01_strerror", scope: !711, file: !711, line: 81, type: !774, isLocal: false, isDefinition: false, flags: DIFlagPrototyped, isOptimized: false)
!774 = !DISubroutineType(types: !775)
!775 = !{!40, !231}
!776 = !DIImportedEntity(tag: DW_TAG_imported_declaration, scope: !6, entity: !777, line: 93)
!777 = !DISubprogram(name: "strlen", scope: !711, file: !711, line: 82, type: !778, isLocal: false, isDefinition: false, flags: DIFlagPrototyped, isOptimized: false)
!778 = !DISubroutineType(types: !779)
!779 = !{!58, !50}
!780 = !DIImportedEntity(tag: DW_TAG_imported_declaration, scope: !6, entity: !781, line: 108)
!781 = !DIDerivedType(tag: DW_TAG_typedef, name: "FILE", file: !782, line: 153, baseType: !783)
!782 = !DIFile(filename: "/usr/include/stdio.h", directory: "/usr/local/mull/mull/lab/simple_test/mutation_operators/and_or_replacement_cpp")
!783 = distinct !DICompositeType(tag: DW_TAG_structure_type, name: "__sFILE", file: !782, line: 122, size: 1216, align: 64, elements: !784, identifier: "_ZTS7__sFILE")
!784 = !{!785, !787, !788, !789, !791, !792, !797, !798, !799, !803, !807, !816, !820, !821, !824, !825, !827, !831, !832, !833}
!785 = !DIDerivedType(tag: DW_TAG_member, name: "_p", scope: !783, file: !782, line: 123, baseType: !786, size: 64, align: 64)
!786 = !DIDerivedType(tag: DW_TAG_pointer_type, baseType: !212, size: 64, align: 64)
!787 = !DIDerivedType(tag: DW_TAG_member, name: "_r", scope: !783, file: !782, line: 124, baseType: !231, size: 32, align: 32, offset: 64)
!788 = !DIDerivedType(tag: DW_TAG_member, name: "_w", scope: !783, file: !782, line: 125, baseType: !231, size: 32, align: 32, offset: 96)
!789 = !DIDerivedType(tag: DW_TAG_member, name: "_flags", scope: !783, file: !782, line: 126, baseType: !790, size: 16, align: 16, offset: 128)
!790 = !DIBasicType(name: "short", size: 16, align: 16, encoding: DW_ATE_signed)
!791 = !DIDerivedType(tag: DW_TAG_member, name: "_file", scope: !783, file: !782, line: 127, baseType: !790, size: 16, align: 16, offset: 144)
!792 = !DIDerivedType(tag: DW_TAG_member, name: "_bf", scope: !783, file: !782, line: 128, baseType: !793, size: 128, align: 64, offset: 192)
!793 = distinct !DICompositeType(tag: DW_TAG_structure_type, name: "__sbuf", file: !782, line: 88, size: 128, align: 64, elements: !794, identifier: "_ZTS6__sbuf")
!794 = !{!795, !796}
!795 = !DIDerivedType(tag: DW_TAG_member, name: "_base", scope: !793, file: !782, line: 89, baseType: !786, size: 64, align: 64)
!796 = !DIDerivedType(tag: DW_TAG_member, name: "_size", scope: !793, file: !782, line: 90, baseType: !231, size: 32, align: 32, offset: 64)
!797 = !DIDerivedType(tag: DW_TAG_member, name: "_lbfsize", scope: !783, file: !782, line: 129, baseType: !231, size: 32, align: 32, offset: 320)
!798 = !DIDerivedType(tag: DW_TAG_member, name: "_cookie", scope: !783, file: !782, line: 132, baseType: !714, size: 64, align: 64, offset: 384)
!799 = !DIDerivedType(tag: DW_TAG_member, name: "_close", scope: !783, file: !782, line: 133, baseType: !800, size: 64, align: 64, offset: 448)
!800 = !DIDerivedType(tag: DW_TAG_pointer_type, baseType: !801, size: 64, align: 64)
!801 = !DISubroutineType(types: !802)
!802 = !{!231, !714}
!803 = !DIDerivedType(tag: DW_TAG_member, name: "_read", scope: !783, file: !782, line: 134, baseType: !804, size: 64, align: 64, offset: 512)
!804 = !DIDerivedType(tag: DW_TAG_pointer_type, baseType: !805, size: 64, align: 64)
!805 = !DISubroutineType(types: !806)
!806 = !{!231, !714, !40, !231}
!807 = !DIDerivedType(tag: DW_TAG_member, name: "_seek", scope: !783, file: !782, line: 135, baseType: !808, size: 64, align: 64, offset: 576)
!808 = !DIDerivedType(tag: DW_TAG_pointer_type, baseType: !809, size: 64, align: 64)
!809 = !DISubroutineType(types: !810)
!810 = !{!811, !714, !811, !231}
!811 = !DIDerivedType(tag: DW_TAG_typedef, name: "fpos_t", file: !782, line: 77, baseType: !812)
!812 = !DIDerivedType(tag: DW_TAG_typedef, name: "__darwin_off_t", file: !813, line: 71, baseType: !814)
!813 = !DIFile(filename: "/usr/include/sys/_types.h", directory: "/usr/local/mull/mull/lab/simple_test/mutation_operators/and_or_replacement_cpp")
!814 = !DIDerivedType(tag: DW_TAG_typedef, name: "__int64_t", file: !61, line: 46, baseType: !815)
!815 = !DIBasicType(name: "long long int", size: 64, align: 64, encoding: DW_ATE_signed)
!816 = !DIDerivedType(tag: DW_TAG_member, name: "_write", scope: !783, file: !782, line: 136, baseType: !817, size: 64, align: 64, offset: 640)
!817 = !DIDerivedType(tag: DW_TAG_pointer_type, baseType: !818, size: 64, align: 64)
!818 = !DISubroutineType(types: !819)
!819 = !{!231, !714, !50, !231}
!820 = !DIDerivedType(tag: DW_TAG_member, name: "_ub", scope: !783, file: !782, line: 139, baseType: !793, size: 128, align: 64, offset: 704)
!821 = !DIDerivedType(tag: DW_TAG_member, name: "_extra", scope: !783, file: !782, line: 140, baseType: !822, size: 64, align: 64, offset: 832)
!822 = !DIDerivedType(tag: DW_TAG_pointer_type, baseType: !823, size: 64, align: 64)
!823 = !DICompositeType(tag: DW_TAG_structure_type, name: "__sFILEX", file: !782, line: 94, flags: DIFlagFwdDecl, identifier: "_ZTS8__sFILEX")
!824 = !DIDerivedType(tag: DW_TAG_member, name: "_ur", scope: !783, file: !782, line: 141, baseType: !231, size: 32, align: 32, offset: 896)
!825 = !DIDerivedType(tag: DW_TAG_member, name: "_ubuf", scope: !783, file: !782, line: 144, baseType: !826, size: 24, align: 8, offset: 928)
!826 = !DICompositeType(tag: DW_TAG_array_type, baseType: !212, size: 24, align: 8, elements: !274)
!827 = !DIDerivedType(tag: DW_TAG_member, name: "_nbuf", scope: !783, file: !782, line: 145, baseType: !828, size: 8, align: 8, offset: 952)
!828 = !DICompositeType(tag: DW_TAG_array_type, baseType: !212, size: 8, align: 8, elements: !829)
!829 = !{!830}
!830 = !DISubrange(count: 1)
!831 = !DIDerivedType(tag: DW_TAG_member, name: "_lb", scope: !783, file: !782, line: 148, baseType: !793, size: 128, align: 64, offset: 960)
!832 = !DIDerivedType(tag: DW_TAG_member, name: "_blksize", scope: !783, file: !782, line: 151, baseType: !231, size: 32, align: 32, offset: 1088)
!833 = !DIDerivedType(tag: DW_TAG_member, name: "_offset", scope: !783, file: !782, line: 152, baseType: !811, size: 64, align: 64, offset: 1152)
!834 = !DIImportedEntity(tag: DW_TAG_imported_declaration, scope: !6, entity: !811, line: 109)
!835 = !DIImportedEntity(tag: DW_TAG_imported_declaration, scope: !6, entity: !58, line: 110)
!836 = !DIImportedEntity(tag: DW_TAG_imported_declaration, scope: !6, entity: !837, line: 112)
!837 = !DISubprogram(name: "fclose", scope: !782, file: !782, line: 232, type: !838, isLocal: false, isDefinition: false, flags: DIFlagPrototyped, isOptimized: false)
!838 = !DISubroutineType(types: !839)
!839 = !{!231, !840}
!840 = !DIDerivedType(tag: DW_TAG_pointer_type, baseType: !781, size: 64, align: 64)
!841 = !DIImportedEntity(tag: DW_TAG_imported_declaration, scope: !6, entity: !842, line: 113)
!842 = !DISubprogram(name: "fflush", scope: !782, file: !782, line: 235, type: !838, isLocal: false, isDefinition: false, flags: DIFlagPrototyped, isOptimized: false)
!843 = !DIImportedEntity(tag: DW_TAG_imported_declaration, scope: !6, entity: !844, line: 114)
!844 = !DISubprogram(name: "setbuf", scope: !782, file: !782, line: 267, type: !845, isLocal: false, isDefinition: false, flags: DIFlagPrototyped, isOptimized: false)
!845 = !DISubroutineType(types: !846)
!846 = !{null, !840, !40}
!847 = !DIImportedEntity(tag: DW_TAG_imported_declaration, scope: !6, entity: !848, line: 115)
!848 = !DISubprogram(name: "setvbuf", scope: !782, file: !782, line: 268, type: !849, isLocal: false, isDefinition: false, flags: DIFlagPrototyped, isOptimized: false)
!849 = !DISubroutineType(types: !850)
!850 = !{!231, !840, !40, !231, !58}
!851 = !DIImportedEntity(tag: DW_TAG_imported_declaration, scope: !6, entity: !852, line: 116)
!852 = !DISubprogram(name: "fprintf", scope: !782, file: !782, line: 244, type: !853, isLocal: false, isDefinition: false, flags: DIFlagPrototyped, isOptimized: false)
!853 = !DISubroutineType(types: !854)
!854 = !{!231, !840, !50, null}
!855 = !DIImportedEntity(tag: DW_TAG_imported_declaration, scope: !6, entity: !856, line: 117)
!856 = !DISubprogram(name: "fscanf", scope: !782, file: !782, line: 250, type: !853, isLocal: false, isDefinition: false, flags: DIFlagPrototyped, isOptimized: false)
!857 = !DIImportedEntity(tag: DW_TAG_imported_declaration, scope: !6, entity: !858, line: 118)
!858 = !DISubprogram(name: "snprintf", scope: !782, file: !782, line: 427, type: !859, isLocal: false, isDefinition: false, flags: DIFlagPrototyped, isOptimized: false)
!859 = !DISubroutineType(types: !860)
!860 = !{!231, !40, !58, !50, null}
!861 = !DIImportedEntity(tag: DW_TAG_imported_declaration, scope: !6, entity: !862, line: 119)
!862 = !DISubprogram(name: "sprintf", scope: !782, file: !782, line: 269, type: !863, isLocal: false, isDefinition: false, flags: DIFlagPrototyped, isOptimized: false)
!863 = !DISubroutineType(types: !864)
!864 = !{!231, !40, !50, null}
!865 = !DIImportedEntity(tag: DW_TAG_imported_declaration, scope: !6, entity: !866, line: 120)
!866 = !DISubprogram(name: "sscanf", scope: !782, file: !782, line: 270, type: !867, isLocal: false, isDefinition: false, flags: DIFlagPrototyped, isOptimized: false)
!867 = !DISubroutineType(types: !868)
!868 = !{!231, !50, !50, null}
!869 = !DIImportedEntity(tag: DW_TAG_imported_declaration, scope: !6, entity: !870, line: 122)
!870 = !DISubprogram(name: "vfprintf", scope: !782, file: !782, line: 279, type: !871, isLocal: false, isDefinition: false, flags: DIFlagPrototyped, isOptimized: false)
!871 = !DISubroutineType(types: !872)
!872 = !{!231, !840, !50, !873}
!873 = !DIDerivedType(tag: DW_TAG_pointer_type, baseType: !874, size: 64, align: 64)
!874 = distinct !DICompositeType(tag: DW_TAG_structure_type, name: "__va_list_tag", file: !1, size: 192, align: 64, elements: !875, identifier: "_ZTS13__va_list_tag")
!875 = !{!876, !877, !878, !879}
!876 = !DIDerivedType(tag: DW_TAG_member, name: "gp_offset", scope: !874, file: !1, baseType: !326, size: 32, align: 32)
!877 = !DIDerivedType(tag: DW_TAG_member, name: "fp_offset", scope: !874, file: !1, baseType: !326, size: 32, align: 32, offset: 32)
!878 = !DIDerivedType(tag: DW_TAG_member, name: "overflow_arg_area", scope: !874, file: !1, baseType: !714, size: 64, align: 64, offset: 64)
!879 = !DIDerivedType(tag: DW_TAG_member, name: "reg_save_area", scope: !874, file: !1, baseType: !714, size: 64, align: 64, offset: 128)
!880 = !DIImportedEntity(tag: DW_TAG_imported_declaration, scope: !6, entity: !881, line: 123)
!881 = !DISubprogram(name: "vfscanf", scope: !782, file: !782, line: 428, type: !871, isLocal: false, isDefinition: false, flags: DIFlagPrototyped, isOptimized: false)
!882 = !DIImportedEntity(tag: DW_TAG_imported_declaration, scope: !6, entity: !883, line: 124)
!883 = !DISubprogram(name: "vsscanf", scope: !782, file: !782, line: 431, type: !884, isLocal: false, isDefinition: false, flags: DIFlagPrototyped, isOptimized: false)
!884 = !DISubroutineType(types: !885)
!885 = !{!231, !50, !50, !873}
!886 = !DIImportedEntity(tag: DW_TAG_imported_declaration, scope: !6, entity: !887, line: 126)
!887 = !DISubprogram(name: "vsnprintf", scope: !782, file: !782, line: 430, type: !888, isLocal: false, isDefinition: false, flags: DIFlagPrototyped, isOptimized: false)
!888 = !DISubroutineType(types: !889)
!889 = !{!231, !40, !58, !50, !873}
!890 = !DIImportedEntity(tag: DW_TAG_imported_declaration, scope: !6, entity: !891, line: 127)
!891 = !DISubprogram(name: "vsprintf", scope: !782, file: !782, line: 281, type: !892, isLocal: false, isDefinition: false, flags: DIFlagPrototyped, isOptimized: false)
!892 = !DISubroutineType(types: !893)
!893 = !{!231, !40, !50, !873}
!894 = !DIImportedEntity(tag: DW_TAG_imported_declaration, scope: !6, entity: !895, line: 128)
!895 = !DISubprogram(name: "fgetc", scope: !782, file: !782, line: 236, type: !838, isLocal: false, isDefinition: false, flags: DIFlagPrototyped, isOptimized: false)
!896 = !DIImportedEntity(tag: DW_TAG_imported_declaration, scope: !6, entity: !897, line: 129)
!897 = !DISubprogram(name: "fgets", scope: !782, file: !782, line: 238, type: !898, isLocal: false, isDefinition: false, flags: DIFlagPrototyped, isOptimized: false)
!898 = !DISubroutineType(types: !899)
!899 = !{!40, !40, !231, !840}
!900 = !DIImportedEntity(tag: DW_TAG_imported_declaration, scope: !6, entity: !901, line: 130)
!901 = !DISubprogram(name: "fputc", scope: !782, file: !782, line: 245, type: !902, isLocal: false, isDefinition: false, flags: DIFlagPrototyped, isOptimized: false)
!902 = !DISubroutineType(types: !903)
!903 = !{!231, !231, !840}
!904 = !DIImportedEntity(tag: DW_TAG_imported_declaration, scope: !6, entity: !905, line: 131)
!905 = !DISubprogram(name: "fputs", linkageName: "\01_fputs", scope: !782, file: !782, line: 246, type: !906, isLocal: false, isDefinition: false, flags: DIFlagPrototyped, isOptimized: false)
!906 = !DISubroutineType(types: !907)
!907 = !{!231, !50, !840}
!908 = !DIImportedEntity(tag: DW_TAG_imported_declaration, scope: !6, entity: !909, line: 132)
!909 = !DISubprogram(name: "getc", scope: !782, file: !782, line: 255, type: !838, isLocal: false, isDefinition: false, flags: DIFlagPrototyped, isOptimized: false)
!910 = !DIImportedEntity(tag: DW_TAG_imported_declaration, scope: !6, entity: !911, line: 133)
!911 = !DISubprogram(name: "putc", scope: !782, file: !782, line: 260, type: !902, isLocal: false, isDefinition: false, flags: DIFlagPrototyped, isOptimized: false)
!912 = !DIImportedEntity(tag: DW_TAG_imported_declaration, scope: !6, entity: !913, line: 134)
!913 = !DISubprogram(name: "ungetc", scope: !782, file: !782, line: 278, type: !902, isLocal: false, isDefinition: false, flags: DIFlagPrototyped, isOptimized: false)
!914 = !DIImportedEntity(tag: DW_TAG_imported_declaration, scope: !6, entity: !915, line: 135)
!915 = !DISubprogram(name: "fread", scope: !782, file: !782, line: 247, type: !916, isLocal: false, isDefinition: false, flags: DIFlagPrototyped, isOptimized: false)
!916 = !DISubroutineType(types: !917)
!917 = !{!58, !714, !58, !58, !840}
!918 = !DIImportedEntity(tag: DW_TAG_imported_declaration, scope: !6, entity: !919, line: 136)
!919 = !DISubprogram(name: "fwrite", linkageName: "\01_fwrite", scope: !782, file: !782, line: 254, type: !920, isLocal: false, isDefinition: false, flags: DIFlagPrototyped, isOptimized: false)
!920 = !DISubroutineType(types: !921)
!921 = !{!58, !68, !58, !58, !840}
!922 = !DIImportedEntity(tag: DW_TAG_imported_declaration, scope: !6, entity: !923, line: 137)
!923 = !DISubprogram(name: "fgetpos", scope: !782, file: !782, line: 237, type: !924, isLocal: false, isDefinition: false, flags: DIFlagPrototyped, isOptimized: false)
!924 = !DISubroutineType(types: !925)
!925 = !{!231, !840, !926}
!926 = !DIDerivedType(tag: DW_TAG_pointer_type, baseType: !811, size: 64, align: 64)
!927 = !DIImportedEntity(tag: DW_TAG_imported_declaration, scope: !6, entity: !928, line: 138)
!928 = !DISubprogram(name: "fseek", scope: !782, file: !782, line: 251, type: !929, isLocal: false, isDefinition: false, flags: DIFlagPrototyped, isOptimized: false)
!929 = !DISubroutineType(types: !930)
!930 = !{!231, !840, !200, !231}
!931 = !DIImportedEntity(tag: DW_TAG_imported_declaration, scope: !6, entity: !932, line: 139)
!932 = !DISubprogram(name: "fsetpos", scope: !782, file: !782, line: 252, type: !933, isLocal: false, isDefinition: false, flags: DIFlagPrototyped, isOptimized: false)
!933 = !DISubroutineType(types: !934)
!934 = !{!231, !840, !935}
!935 = !DIDerivedType(tag: DW_TAG_pointer_type, baseType: !936, size: 64, align: 64)
!936 = !DIDerivedType(tag: DW_TAG_const_type, baseType: !811)
!937 = !DIImportedEntity(tag: DW_TAG_imported_declaration, scope: !6, entity: !938, line: 140)
!938 = !DISubprogram(name: "ftell", scope: !782, file: !782, line: 253, type: !939, isLocal: false, isDefinition: false, flags: DIFlagPrototyped, isOptimized: false)
!939 = !DISubroutineType(types: !940)
!940 = !{!200, !840}
!941 = !DIImportedEntity(tag: DW_TAG_imported_declaration, scope: !6, entity: !942, line: 141)
!942 = !DISubprogram(name: "rewind", scope: !782, file: !782, line: 265, type: !943, isLocal: false, isDefinition: false, flags: DIFlagPrototyped, isOptimized: false)
!943 = !DISubroutineType(types: !944)
!944 = !{null, !840}
!945 = !DIImportedEntity(tag: DW_TAG_imported_declaration, scope: !6, entity: !946, line: 142)
!946 = !DISubprogram(name: "clearerr", scope: !782, file: !782, line: 231, type: !943, isLocal: false, isDefinition: false, flags: DIFlagPrototyped, isOptimized: false)
!947 = !DIImportedEntity(tag: DW_TAG_imported_declaration, scope: !6, entity: !948, line: 143)
!948 = !DISubprogram(name: "feof", scope: !782, file: !782, line: 233, type: !838, isLocal: false, isDefinition: false, flags: DIFlagPrototyped, isOptimized: false)
!949 = !DIImportedEntity(tag: DW_TAG_imported_declaration, scope: !6, entity: !950, line: 144)
!950 = !DISubprogram(name: "ferror", scope: !782, file: !782, line: 234, type: !838, isLocal: false, isDefinition: false, flags: DIFlagPrototyped, isOptimized: false)
!951 = !DIImportedEntity(tag: DW_TAG_imported_declaration, scope: !6, entity: !952, line: 145)
!952 = !DISubprogram(name: "perror", scope: !782, file: !782, line: 258, type: !953, isLocal: false, isDefinition: false, flags: DIFlagPrototyped, isOptimized: false)
!953 = !DISubroutineType(types: !954)
!954 = !{null, !50}
!955 = !DIImportedEntity(tag: DW_TAG_imported_declaration, scope: !6, entity: !956, line: 148)
!956 = !DISubprogram(name: "fopen", linkageName: "\01_fopen", scope: !782, file: !782, line: 242, type: !957, isLocal: false, isDefinition: false, flags: DIFlagPrototyped, isOptimized: false)
!957 = !DISubroutineType(types: !958)
!958 = !{!840, !50, !50}
!959 = !DIImportedEntity(tag: DW_TAG_imported_declaration, scope: !6, entity: !960, line: 149)
!960 = !DISubprogram(name: "freopen", linkageName: "\01_freopen", scope: !782, file: !782, line: 248, type: !961, isLocal: false, isDefinition: false, flags: DIFlagPrototyped, isOptimized: false)
!961 = !DISubroutineType(types: !962)
!962 = !{!840, !50, !50, !840}
!963 = !DIImportedEntity(tag: DW_TAG_imported_declaration, scope: !6, entity: !964, line: 150)
!964 = !DISubprogram(name: "remove", scope: !782, file: !782, line: 263, type: !965, isLocal: false, isDefinition: false, flags: DIFlagPrototyped, isOptimized: false)
!965 = !DISubroutineType(types: !966)
!966 = !{!231, !50}
!967 = !DIImportedEntity(tag: DW_TAG_imported_declaration, scope: !6, entity: !968, line: 151)
!968 = !DISubprogram(name: "rename", scope: !782, file: !782, line: 264, type: !735, isLocal: false, isDefinition: false, flags: DIFlagPrototyped, isOptimized: false)
!969 = !DIImportedEntity(tag: DW_TAG_imported_declaration, scope: !6, entity: !970, line: 152)
!970 = !DISubprogram(name: "tmpfile", scope: !782, file: !782, line: 271, type: !971, isLocal: false, isDefinition: false, flags: DIFlagPrototyped, isOptimized: false)
!971 = !DISubroutineType(types: !972)
!972 = !{!840}
!973 = !DIImportedEntity(tag: DW_TAG_imported_declaration, scope: !6, entity: !974, line: 153)
!974 = !DISubprogram(name: "tmpnam", scope: !782, file: !782, line: 277, type: !975, isLocal: false, isDefinition: false, flags: DIFlagPrototyped, isOptimized: false)
!975 = !DISubroutineType(types: !976)
!976 = !{!40, !40}
!977 = !DIImportedEntity(tag: DW_TAG_imported_declaration, scope: !6, entity: !978, line: 157)
!978 = !DISubprogram(name: "getchar", scope: !782, file: !782, line: 256, type: !979, isLocal: false, isDefinition: false, flags: DIFlagPrototyped, isOptimized: false)
!979 = !DISubroutineType(types: !980)
!980 = !{!231}
!981 = !DIImportedEntity(tag: DW_TAG_imported_declaration, scope: !6, entity: !982, line: 159)
!982 = !DISubprogram(name: "gets", scope: !782, file: !782, line: 257, type: !975, isLocal: false, isDefinition: false, flags: DIFlagPrototyped, isOptimized: false)
!983 = !DIImportedEntity(tag: DW_TAG_imported_declaration, scope: !6, entity: !984, line: 161)
!984 = !DISubprogram(name: "scanf", scope: !782, file: !782, line: 266, type: !985, isLocal: false, isDefinition: false, flags: DIFlagPrototyped, isOptimized: false)
!985 = !DISubroutineType(types: !986)
!986 = !{!231, !50, null}
!987 = !DIImportedEntity(tag: DW_TAG_imported_declaration, scope: !6, entity: !988, line: 162)
!988 = !DISubprogram(name: "vscanf", scope: !782, file: !782, line: 429, type: !989, isLocal: false, isDefinition: false, flags: DIFlagPrototyped, isOptimized: false)
!989 = !DISubroutineType(types: !990)
!990 = !{!231, !50, !873}
!991 = !DIImportedEntity(tag: DW_TAG_imported_declaration, scope: !6, entity: !992, line: 166)
!992 = !DISubprogram(name: "printf", scope: !782, file: !782, line: 259, type: !985, isLocal: false, isDefinition: false, flags: DIFlagPrototyped, isOptimized: false)
!993 = !DIImportedEntity(tag: DW_TAG_imported_declaration, scope: !6, entity: !994, line: 167)
!994 = !DISubprogram(name: "putchar", scope: !782, file: !782, line: 261, type: !995, isLocal: false, isDefinition: false, flags: DIFlagPrototyped, isOptimized: false)
!995 = !DISubroutineType(types: !996)
!996 = !{!231, !231}
!997 = !DIImportedEntity(tag: DW_TAG_imported_declaration, scope: !6, entity: !998, line: 168)
!998 = !DISubprogram(name: "puts", scope: !782, file: !782, line: 262, type: !965, isLocal: false, isDefinition: false, flags: DIFlagPrototyped, isOptimized: false)
!999 = !DIImportedEntity(tag: DW_TAG_imported_declaration, scope: !6, entity: !1000, line: 169)
!1000 = !DISubprogram(name: "vprintf", scope: !782, file: !782, line: 280, type: !989, isLocal: false, isDefinition: false, flags: DIFlagPrototyped, isOptimized: false)
!1001 = !DIImportedEntity(tag: DW_TAG_imported_declaration, scope: !6, entity: !1002, line: 104)
!1002 = !DISubprogram(name: "isalnum", linkageName: "_Z7isalnumi", scope: !1003, file: !1003, line: 212, type: !995, isLocal: false, isDefinition: false, flags: DIFlagPrototyped, isOptimized: false)
!1003 = !DIFile(filename: "/usr/include/ctype.h", directory: "/usr/local/mull/mull/lab/simple_test/mutation_operators/and_or_replacement_cpp")
!1004 = !DIImportedEntity(tag: DW_TAG_imported_declaration, scope: !6, entity: !1005, line: 105)
!1005 = !DISubprogram(name: "isalpha", linkageName: "_Z7isalphai", scope: !1003, file: !1003, line: 218, type: !995, isLocal: false, isDefinition: false, flags: DIFlagPrototyped, isOptimized: false)
!1006 = !DIImportedEntity(tag: DW_TAG_imported_declaration, scope: !6, entity: !1007, line: 106)
!1007 = !DISubprogram(name: "isblank", linkageName: "_Z7isblanki", scope: !1003, file: !1003, line: 224, type: !995, isLocal: false, isDefinition: false, flags: DIFlagPrototyped, isOptimized: false)
!1008 = !DIImportedEntity(tag: DW_TAG_imported_declaration, scope: !6, entity: !1009, line: 107)
!1009 = !DISubprogram(name: "iscntrl", linkageName: "_Z7iscntrli", scope: !1003, file: !1003, line: 230, type: !995, isLocal: false, isDefinition: false, flags: DIFlagPrototyped, isOptimized: false)
!1010 = !DIImportedEntity(tag: DW_TAG_imported_declaration, scope: !6, entity: !1011, line: 108)
!1011 = !DISubprogram(name: "isdigit", linkageName: "_Z7isdigiti", scope: !1003, file: !1003, line: 237, type: !995, isLocal: false, isDefinition: false, flags: DIFlagPrototyped, isOptimized: false)
!1012 = !DIImportedEntity(tag: DW_TAG_imported_declaration, scope: !6, entity: !1013, line: 109)
!1013 = !DISubprogram(name: "isgraph", linkageName: "_Z7isgraphi", scope: !1003, file: !1003, line: 243, type: !995, isLocal: false, isDefinition: false, flags: DIFlagPrototyped, isOptimized: false)
!1014 = !DIImportedEntity(tag: DW_TAG_imported_declaration, scope: !6, entity: !1015, line: 110)
!1015 = !DISubprogram(name: "islower", linkageName: "_Z7isloweri", scope: !1003, file: !1003, line: 249, type: !995, isLocal: false, isDefinition: false, flags: DIFlagPrototyped, isOptimized: false)
!1016 = !DIImportedEntity(tag: DW_TAG_imported_declaration, scope: !6, entity: !1017, line: 111)
!1017 = !DISubprogram(name: "isprint", linkageName: "_Z7isprinti", scope: !1003, file: !1003, line: 255, type: !995, isLocal: false, isDefinition: false, flags: DIFlagPrototyped, isOptimized: false)
!1018 = !DIImportedEntity(tag: DW_TAG_imported_declaration, scope: !6, entity: !1019, line: 112)
!1019 = !DISubprogram(name: "ispunct", linkageName: "_Z7ispuncti", scope: !1003, file: !1003, line: 261, type: !995, isLocal: false, isDefinition: false, flags: DIFlagPrototyped, isOptimized: false)
!1020 = !DIImportedEntity(tag: DW_TAG_imported_declaration, scope: !6, entity: !1021, line: 113)
!1021 = !DISubprogram(name: "isspace", linkageName: "_Z7isspacei", scope: !1003, file: !1003, line: 267, type: !995, isLocal: false, isDefinition: false, flags: DIFlagPrototyped, isOptimized: false)
!1022 = !DIImportedEntity(tag: DW_TAG_imported_declaration, scope: !6, entity: !1023, line: 114)
!1023 = !DISubprogram(name: "isupper", linkageName: "_Z7isupperi", scope: !1003, file: !1003, line: 273, type: !995, isLocal: false, isDefinition: false, flags: DIFlagPrototyped, isOptimized: false)
!1024 = !DIImportedEntity(tag: DW_TAG_imported_declaration, scope: !6, entity: !1025, line: 115)
!1025 = !DISubprogram(name: "isxdigit", linkageName: "_Z8isxdigiti", scope: !1003, file: !1003, line: 280, type: !995, isLocal: false, isDefinition: false, flags: DIFlagPrototyped, isOptimized: false)
!1026 = !DIImportedEntity(tag: DW_TAG_imported_declaration, scope: !6, entity: !1027, line: 116)
!1027 = !DISubprogram(name: "tolower", linkageName: "_Z7toloweri", scope: !1003, file: !1003, line: 292, type: !995, isLocal: false, isDefinition: false, flags: DIFlagPrototyped, isOptimized: false)
!1028 = !DIImportedEntity(tag: DW_TAG_imported_declaration, scope: !6, entity: !1029, line: 117)
!1029 = !DISubprogram(name: "toupper", linkageName: "_Z7toupperi", scope: !1003, file: !1003, line: 298, type: !995, isLocal: false, isDefinition: false, flags: DIFlagPrototyped, isOptimized: false)
!1030 = !DIImportedEntity(tag: DW_TAG_imported_declaration, scope: !6, entity: !1031, line: 63)
!1031 = !DIDerivedType(tag: DW_TAG_typedef, name: "wint_t", file: !1032, line: 31, baseType: !1033)
!1032 = !DIFile(filename: "/usr/include/sys/_types/_wint_t.h", directory: "/usr/local/mull/mull/lab/simple_test/mutation_operators/and_or_replacement_cpp")
!1033 = !DIDerivedType(tag: DW_TAG_typedef, name: "__darwin_wint_t", file: !61, line: 112, baseType: !231)
!1034 = !DIImportedEntity(tag: DW_TAG_imported_declaration, scope: !6, entity: !1035, line: 64)
!1035 = !DIDerivedType(tag: DW_TAG_typedef, name: "wctrans_t", file: !1036, line: 31, baseType: !1037)
!1036 = !DIFile(filename: "/usr/include/_types/_wctrans_t.h", directory: "/usr/local/mull/mull/lab/simple_test/mutation_operators/and_or_replacement_cpp")
!1037 = !DIDerivedType(tag: DW_TAG_typedef, name: "__darwin_wctrans_t", file: !1038, line: 40, baseType: !231)
!1038 = !DIFile(filename: "/usr/include/_types.h", directory: "/usr/local/mull/mull/lab/simple_test/mutation_operators/and_or_replacement_cpp")
!1039 = !DIImportedEntity(tag: DW_TAG_imported_declaration, scope: !6, entity: !1040, line: 65)
!1040 = !DIDerivedType(tag: DW_TAG_typedef, name: "wctype_t", file: !1041, line: 31, baseType: !1042)
!1041 = !DIFile(filename: "/usr/include/_types/_wctype_t.h", directory: "/usr/local/mull/mull/lab/simple_test/mutation_operators/and_or_replacement_cpp")
!1042 = !DIDerivedType(tag: DW_TAG_typedef, name: "__darwin_wctype_t", file: !1038, line: 42, baseType: !1043)
!1043 = !DIDerivedType(tag: DW_TAG_typedef, name: "__uint32_t", file: !61, line: 45, baseType: !326)
!1044 = !DIImportedEntity(tag: DW_TAG_imported_declaration, scope: !6, entity: !1045, line: 66)
!1045 = !DISubprogram(name: "iswalnum", linkageName: "_Z8iswalnumi", scope: !1046, file: !1046, line: 66, type: !1047, isLocal: false, isDefinition: false, flags: DIFlagPrototyped, isOptimized: false)
!1046 = !DIFile(filename: "/usr/include/_wctype.h", directory: "/usr/local/mull/mull/lab/simple_test/mutation_operators/and_or_replacement_cpp")
!1047 = !DISubroutineType(types: !1048)
!1048 = !{!231, !1031}
!1049 = !DIImportedEntity(tag: DW_TAG_imported_declaration, scope: !6, entity: !1050, line: 67)
!1050 = !DISubprogram(name: "iswalpha", linkageName: "_Z8iswalphai", scope: !1046, file: !1046, line: 72, type: !1047, isLocal: false, isDefinition: false, flags: DIFlagPrototyped, isOptimized: false)
!1051 = !DIImportedEntity(tag: DW_TAG_imported_declaration, scope: !6, entity: !1052, line: 68)
!1052 = !DISubprogram(name: "iswblank", linkageName: "_Z8iswblanki", scope: !1053, file: !1053, line: 50, type: !1047, isLocal: false, isDefinition: false, flags: DIFlagPrototyped, isOptimized: false)
!1053 = !DIFile(filename: "/usr/include/wctype.h", directory: "/usr/local/mull/mull/lab/simple_test/mutation_operators/and_or_replacement_cpp")
!1054 = !DIImportedEntity(tag: DW_TAG_imported_declaration, scope: !6, entity: !1055, line: 69)
!1055 = !DISubprogram(name: "iswcntrl", linkageName: "_Z8iswcntrli", scope: !1046, file: !1046, line: 78, type: !1047, isLocal: false, isDefinition: false, flags: DIFlagPrototyped, isOptimized: false)
!1056 = !DIImportedEntity(tag: DW_TAG_imported_declaration, scope: !6, entity: !1057, line: 70)
!1057 = !DISubprogram(name: "iswdigit", linkageName: "_Z8iswdigiti", scope: !1046, file: !1046, line: 90, type: !1047, isLocal: false, isDefinition: false, flags: DIFlagPrototyped, isOptimized: false)
!1058 = !DIImportedEntity(tag: DW_TAG_imported_declaration, scope: !6, entity: !1059, line: 71)
!1059 = !DISubprogram(name: "iswgraph", linkageName: "_Z8iswgraphi", scope: !1046, file: !1046, line: 96, type: !1047, isLocal: false, isDefinition: false, flags: DIFlagPrototyped, isOptimized: false)
!1060 = !DIImportedEntity(tag: DW_TAG_imported_declaration, scope: !6, entity: !1061, line: 72)
!1061 = !DISubprogram(name: "iswlower", linkageName: "_Z8iswloweri", scope: !1046, file: !1046, line: 102, type: !1047, isLocal: false, isDefinition: false, flags: DIFlagPrototyped, isOptimized: false)
!1062 = !DIImportedEntity(tag: DW_TAG_imported_declaration, scope: !6, entity: !1063, line: 73)
!1063 = !DISubprogram(name: "iswprint", linkageName: "_Z8iswprinti", scope: !1046, file: !1046, line: 108, type: !1047, isLocal: false, isDefinition: false, flags: DIFlagPrototyped, isOptimized: false)
!1064 = !DIImportedEntity(tag: DW_TAG_imported_declaration, scope: !6, entity: !1065, line: 74)
!1065 = !DISubprogram(name: "iswpunct", linkageName: "_Z8iswpuncti", scope: !1046, file: !1046, line: 114, type: !1047, isLocal: false, isDefinition: false, flags: DIFlagPrototyped, isOptimized: false)
!1066 = !DIImportedEntity(tag: DW_TAG_imported_declaration, scope: !6, entity: !1067, line: 75)
!1067 = !DISubprogram(name: "iswspace", linkageName: "_Z8iswspacei", scope: !1046, file: !1046, line: 120, type: !1047, isLocal: false, isDefinition: false, flags: DIFlagPrototyped, isOptimized: false)
!1068 = !DIImportedEntity(tag: DW_TAG_imported_declaration, scope: !6, entity: !1069, line: 76)
!1069 = !DISubprogram(name: "iswupper", linkageName: "_Z8iswupperi", scope: !1046, file: !1046, line: 126, type: !1047, isLocal: false, isDefinition: false, flags: DIFlagPrototyped, isOptimized: false)
!1070 = !DIImportedEntity(tag: DW_TAG_imported_declaration, scope: !6, entity: !1071, line: 77)
!1071 = !DISubprogram(name: "iswxdigit", linkageName: "_Z9iswxdigiti", scope: !1046, file: !1046, line: 132, type: !1047, isLocal: false, isDefinition: false, flags: DIFlagPrototyped, isOptimized: false)
!1072 = !DIImportedEntity(tag: DW_TAG_imported_declaration, scope: !6, entity: !1073, line: 78)
!1073 = !DISubprogram(name: "iswctype", linkageName: "_Z8iswctypeij", scope: !1046, file: !1046, line: 84, type: !1074, isLocal: false, isDefinition: false, flags: DIFlagPrototyped, isOptimized: false)
!1074 = !DISubroutineType(types: !1075)
!1075 = !{!231, !1031, !1040}
!1076 = !DIImportedEntity(tag: DW_TAG_imported_declaration, scope: !6, entity: !1077, line: 79)
!1077 = !DISubprogram(name: "wctype", scope: !1046, file: !1046, line: 172, type: !1078, isLocal: false, isDefinition: false, flags: DIFlagPrototyped, isOptimized: false)
!1078 = !DISubroutineType(types: !1079)
!1079 = !{!1040, !50}
!1080 = !DIImportedEntity(tag: DW_TAG_imported_declaration, scope: !6, entity: !1081, line: 80)
!1081 = !DISubprogram(name: "towlower", linkageName: "_Z8towloweri", scope: !1046, file: !1046, line: 138, type: !1082, isLocal: false, isDefinition: false, flags: DIFlagPrototyped, isOptimized: false)
!1082 = !DISubroutineType(types: !1083)
!1083 = !{!1031, !1031}
!1084 = !DIImportedEntity(tag: DW_TAG_imported_declaration, scope: !6, entity: !1085, line: 81)
!1085 = !DISubprogram(name: "towupper", linkageName: "_Z8towupperi", scope: !1046, file: !1046, line: 144, type: !1082, isLocal: false, isDefinition: false, flags: DIFlagPrototyped, isOptimized: false)
!1086 = !DIImportedEntity(tag: DW_TAG_imported_declaration, scope: !6, entity: !1087, line: 82)
!1087 = !DISubprogram(name: "towctrans", scope: !1053, file: !1053, line: 121, type: !1088, isLocal: false, isDefinition: false, flags: DIFlagPrototyped, isOptimized: false)
!1088 = !DISubroutineType(types: !1089)
!1089 = !{!1031, !1031, !1035}
!1090 = !DIImportedEntity(tag: DW_TAG_imported_declaration, scope: !6, entity: !1091, line: 83)
!1091 = !DISubprogram(name: "wctrans", scope: !1053, file: !1053, line: 123, type: !1092, isLocal: false, isDefinition: false, flags: DIFlagPrototyped, isOptimized: false)
!1092 = !DISubroutineType(types: !1093)
!1093 = !{!1035, !50}
!1094 = !DIImportedEntity(tag: DW_TAG_imported_declaration, scope: !6, entity: !1095, line: 116)
!1095 = !DIDerivedType(tag: DW_TAG_typedef, name: "mbstate_t", file: !1096, line: 31, baseType: !1097)
!1096 = !DIFile(filename: "/usr/include/sys/_types/_mbstate_t.h", directory: "/usr/local/mull/mull/lab/simple_test/mutation_operators/and_or_replacement_cpp")
!1097 = !DIDerivedType(tag: DW_TAG_typedef, name: "__darwin_mbstate_t", file: !61, line: 81, baseType: !1098)
!1098 = !DIDerivedType(tag: DW_TAG_typedef, name: "__mbstate_t", file: !61, line: 79, baseType: !1099)
!1099 = distinct !DICompositeType(tag: DW_TAG_union_type, file: !61, line: 76, size: 1024, align: 64, elements: !1100, identifier: "_ZTS11__mbstate_t")
!1100 = !{!1101, !1105}
!1101 = !DIDerivedType(tag: DW_TAG_member, name: "__mbstate8", scope: !1099, file: !61, line: 77, baseType: !1102, size: 1024, align: 8)
!1102 = !DICompositeType(tag: DW_TAG_array_type, baseType: !41, size: 1024, align: 8, elements: !1103)
!1103 = !{!1104}
!1104 = !DISubrange(count: 128)
!1105 = !DIDerivedType(tag: DW_TAG_member, name: "_mbstateL", scope: !1099, file: !61, line: 78, baseType: !815, size: 64, align: 64)
!1106 = !DIImportedEntity(tag: DW_TAG_imported_declaration, scope: !6, entity: !58, line: 117)
!1107 = !DIImportedEntity(tag: DW_TAG_imported_declaration, scope: !6, entity: !1108, line: 118)
!1108 = distinct !DICompositeType(tag: DW_TAG_structure_type, name: "tm", file: !1109, line: 74, size: 448, align: 64, elements: !1110, identifier: "_ZTS2tm")
!1109 = !DIFile(filename: "/usr/include/time.h", directory: "/usr/local/mull/mull/lab/simple_test/mutation_operators/and_or_replacement_cpp")
!1110 = !{!1111, !1112, !1113, !1114, !1115, !1116, !1117, !1118, !1119, !1120, !1121}
!1111 = !DIDerivedType(tag: DW_TAG_member, name: "tm_sec", scope: !1108, file: !1109, line: 75, baseType: !231, size: 32, align: 32)
!1112 = !DIDerivedType(tag: DW_TAG_member, name: "tm_min", scope: !1108, file: !1109, line: 76, baseType: !231, size: 32, align: 32, offset: 32)
!1113 = !DIDerivedType(tag: DW_TAG_member, name: "tm_hour", scope: !1108, file: !1109, line: 77, baseType: !231, size: 32, align: 32, offset: 64)
!1114 = !DIDerivedType(tag: DW_TAG_member, name: "tm_mday", scope: !1108, file: !1109, line: 78, baseType: !231, size: 32, align: 32, offset: 96)
!1115 = !DIDerivedType(tag: DW_TAG_member, name: "tm_mon", scope: !1108, file: !1109, line: 79, baseType: !231, size: 32, align: 32, offset: 128)
!1116 = !DIDerivedType(tag: DW_TAG_member, name: "tm_year", scope: !1108, file: !1109, line: 80, baseType: !231, size: 32, align: 32, offset: 160)
!1117 = !DIDerivedType(tag: DW_TAG_member, name: "tm_wday", scope: !1108, file: !1109, line: 81, baseType: !231, size: 32, align: 32, offset: 192)
!1118 = !DIDerivedType(tag: DW_TAG_member, name: "tm_yday", scope: !1108, file: !1109, line: 82, baseType: !231, size: 32, align: 32, offset: 224)
!1119 = !DIDerivedType(tag: DW_TAG_member, name: "tm_isdst", scope: !1108, file: !1109, line: 83, baseType: !231, size: 32, align: 32, offset: 256)
!1120 = !DIDerivedType(tag: DW_TAG_member, name: "tm_gmtoff", scope: !1108, file: !1109, line: 84, baseType: !200, size: 64, align: 64, offset: 320)
!1121 = !DIDerivedType(tag: DW_TAG_member, name: "tm_zone", scope: !1108, file: !1109, line: 85, baseType: !40, size: 64, align: 64, offset: 384)
!1122 = !DIImportedEntity(tag: DW_TAG_imported_declaration, scope: !6, entity: !1031, line: 119)
!1123 = !DIImportedEntity(tag: DW_TAG_imported_declaration, scope: !6, entity: !781, line: 120)
!1124 = !DIImportedEntity(tag: DW_TAG_imported_declaration, scope: !6, entity: !1125, line: 121)
!1125 = !DISubprogram(name: "fwprintf", scope: !1126, file: !1126, line: 103, type: !1127, isLocal: false, isDefinition: false, flags: DIFlagPrototyped, isOptimized: false)
!1126 = !DIFile(filename: "/usr/include/wchar.h", directory: "/usr/local/mull/mull/lab/simple_test/mutation_operators/and_or_replacement_cpp")
!1127 = !DISubroutineType(types: !1128)
!1128 = !{!231, !840, !1129, null}
!1129 = !DIDerivedType(tag: DW_TAG_pointer_type, baseType: !1130, size: 64, align: 64)
!1130 = !DIDerivedType(tag: DW_TAG_const_type, baseType: !1131)
!1131 = !DIBasicType(name: "wchar_t", size: 32, align: 32, encoding: DW_ATE_signed)
!1132 = !DIImportedEntity(tag: DW_TAG_imported_declaration, scope: !6, entity: !1133, line: 122)
!1133 = !DISubprogram(name: "fwscanf", scope: !1126, file: !1126, line: 104, type: !1127, isLocal: false, isDefinition: false, flags: DIFlagPrototyped, isOptimized: false)
!1134 = !DIImportedEntity(tag: DW_TAG_imported_declaration, scope: !6, entity: !1135, line: 123)
!1135 = !DISubprogram(name: "swprintf", scope: !1126, file: !1126, line: 115, type: !1136, isLocal: false, isDefinition: false, flags: DIFlagPrototyped, isOptimized: false)
!1136 = !DISubroutineType(types: !1137)
!1137 = !{!231, !1138, !58, !1129, null}
!1138 = !DIDerivedType(tag: DW_TAG_pointer_type, baseType: !1131, size: 64, align: 64)
!1139 = !DIImportedEntity(tag: DW_TAG_imported_declaration, scope: !6, entity: !1140, line: 124)
!1140 = !DISubprogram(name: "vfwprintf", scope: !1126, file: !1126, line: 118, type: !1141, isLocal: false, isDefinition: false, flags: DIFlagPrototyped, isOptimized: false)
!1141 = !DISubroutineType(types: !1142)
!1142 = !{!231, !840, !1129, !873}
!1143 = !DIImportedEntity(tag: DW_TAG_imported_declaration, scope: !6, entity: !1144, line: 125)
!1144 = !DISubprogram(name: "vswprintf", scope: !1126, file: !1126, line: 120, type: !1145, isLocal: false, isDefinition: false, flags: DIFlagPrototyped, isOptimized: false)
!1145 = !DISubroutineType(types: !1146)
!1146 = !{!231, !1138, !58, !1129, !873}
!1147 = !DIImportedEntity(tag: DW_TAG_imported_declaration, scope: !6, entity: !1148, line: 127)
!1148 = !DISubprogram(name: "swscanf", scope: !1126, file: !1126, line: 116, type: !1149, isLocal: false, isDefinition: false, flags: DIFlagPrototyped, isOptimized: false)
!1149 = !DISubroutineType(types: !1150)
!1150 = !{!231, !1129, !1129, null}
!1151 = !DIImportedEntity(tag: DW_TAG_imported_declaration, scope: !6, entity: !1152, line: 128)
!1152 = !DISubprogram(name: "vfwscanf", scope: !1126, file: !1126, line: 170, type: !1141, isLocal: false, isDefinition: false, flags: DIFlagPrototyped, isOptimized: false)
!1153 = !DIImportedEntity(tag: DW_TAG_imported_declaration, scope: !6, entity: !1154, line: 129)
!1154 = !DISubprogram(name: "vswscanf", scope: !1126, file: !1126, line: 172, type: !1155, isLocal: false, isDefinition: false, flags: DIFlagPrototyped, isOptimized: false)
!1155 = !DISubroutineType(types: !1156)
!1156 = !{!231, !1129, !1129, !873}
!1157 = !DIImportedEntity(tag: DW_TAG_imported_declaration, scope: !6, entity: !1158, line: 131)
!1158 = !DISubprogram(name: "fgetwc", scope: !1126, file: !1126, line: 98, type: !1159, isLocal: false, isDefinition: false, flags: DIFlagPrototyped, isOptimized: false)
!1159 = !DISubroutineType(types: !1160)
!1160 = !{!1031, !840}
!1161 = !DIImportedEntity(tag: DW_TAG_imported_declaration, scope: !6, entity: !1162, line: 132)
!1162 = !DISubprogram(name: "fgetws", scope: !1126, file: !1126, line: 99, type: !1163, isLocal: false, isDefinition: false, flags: DIFlagPrototyped, isOptimized: false)
!1163 = !DISubroutineType(types: !1164)
!1164 = !{!1138, !1138, !231, !840}
!1165 = !DIImportedEntity(tag: DW_TAG_imported_declaration, scope: !6, entity: !1166, line: 133)
!1166 = !DISubprogram(name: "fputwc", scope: !1126, file: !1126, line: 100, type: !1167, isLocal: false, isDefinition: false, flags: DIFlagPrototyped, isOptimized: false)
!1167 = !DISubroutineType(types: !1168)
!1168 = !{!1031, !1131, !840}
!1169 = !DIImportedEntity(tag: DW_TAG_imported_declaration, scope: !6, entity: !1170, line: 134)
!1170 = !DISubprogram(name: "fputws", scope: !1126, file: !1126, line: 101, type: !1171, isLocal: false, isDefinition: false, flags: DIFlagPrototyped, isOptimized: false)
!1171 = !DISubroutineType(types: !1172)
!1172 = !{!231, !1129, !840}
!1173 = !DIImportedEntity(tag: DW_TAG_imported_declaration, scope: !6, entity: !1174, line: 135)
!1174 = !DISubprogram(name: "fwide", scope: !1126, file: !1126, line: 102, type: !1175, isLocal: false, isDefinition: false, flags: DIFlagPrototyped, isOptimized: false)
!1175 = !DISubroutineType(types: !1176)
!1176 = !{!231, !840, !231}
!1177 = !DIImportedEntity(tag: DW_TAG_imported_declaration, scope: !6, entity: !1178, line: 136)
!1178 = !DISubprogram(name: "getwc", scope: !1126, file: !1126, line: 105, type: !1159, isLocal: false, isDefinition: false, flags: DIFlagPrototyped, isOptimized: false)
!1179 = !DIImportedEntity(tag: DW_TAG_imported_declaration, scope: !6, entity: !1180, line: 137)
!1180 = !DISubprogram(name: "putwc", scope: !1126, file: !1126, line: 113, type: !1167, isLocal: false, isDefinition: false, flags: DIFlagPrototyped, isOptimized: false)
!1181 = !DIImportedEntity(tag: DW_TAG_imported_declaration, scope: !6, entity: !1182, line: 138)
!1182 = !DISubprogram(name: "ungetwc", scope: !1126, file: !1126, line: 117, type: !1183, isLocal: false, isDefinition: false, flags: DIFlagPrototyped, isOptimized: false)
!1183 = !DISubroutineType(types: !1184)
!1184 = !{!1031, !1031, !840}
!1185 = !DIImportedEntity(tag: DW_TAG_imported_declaration, scope: !6, entity: !1186, line: 139)
!1186 = !DISubprogram(name: "wcstod", scope: !1126, file: !1126, line: 144, type: !1187, isLocal: false, isDefinition: false, flags: DIFlagPrototyped, isOptimized: false)
!1187 = !DISubroutineType(types: !1188)
!1188 = !{!1189, !1129, !1190}
!1189 = !DIBasicType(name: "double", size: 64, align: 64, encoding: DW_ATE_float)
!1190 = !DIDerivedType(tag: DW_TAG_pointer_type, baseType: !1138, size: 64, align: 64)
!1191 = !DIImportedEntity(tag: DW_TAG_imported_declaration, scope: !6, entity: !1192, line: 141)
!1192 = !DISubprogram(name: "wcstof", scope: !1126, file: !1126, line: 175, type: !1193, isLocal: false, isDefinition: false, flags: DIFlagPrototyped, isOptimized: false)
!1193 = !DISubroutineType(types: !1194)
!1194 = !{!1195, !1129, !1190}
!1195 = !DIBasicType(name: "float", size: 32, align: 32, encoding: DW_ATE_float)
!1196 = !DIImportedEntity(tag: DW_TAG_imported_declaration, scope: !6, entity: !1197, line: 142)
!1197 = !DISubprogram(name: "wcstold", scope: !1126, file: !1126, line: 177, type: !1198, isLocal: false, isDefinition: false, flags: DIFlagPrototyped, isOptimized: false)
!1198 = !DISubroutineType(types: !1199)
!1199 = !{!1200, !1129, !1190}
!1200 = !DIBasicType(name: "long double", size: 128, align: 128, encoding: DW_ATE_float)
!1201 = !DIImportedEntity(tag: DW_TAG_imported_declaration, scope: !6, entity: !1202, line: 144)
!1202 = !DISubprogram(name: "wcstol", scope: !1126, file: !1126, line: 147, type: !1203, isLocal: false, isDefinition: false, flags: DIFlagPrototyped, isOptimized: false)
!1203 = !DISubroutineType(types: !1204)
!1204 = !{!200, !1129, !1190, !231}
!1205 = !DIImportedEntity(tag: DW_TAG_imported_declaration, scope: !6, entity: !1206, line: 146)
!1206 = !DISubprogram(name: "wcstoll", scope: !1126, file: !1126, line: 180, type: !1207, isLocal: false, isDefinition: false, flags: DIFlagPrototyped, isOptimized: false)
!1207 = !DISubroutineType(types: !1208)
!1208 = !{!815, !1129, !1190, !231}
!1209 = !DIImportedEntity(tag: DW_TAG_imported_declaration, scope: !6, entity: !1210, line: 148)
!1210 = !DISubprogram(name: "wcstoul", scope: !1126, file: !1126, line: 149, type: !1211, isLocal: false, isDefinition: false, flags: DIFlagPrototyped, isOptimized: false)
!1211 = !DISubroutineType(types: !1212)
!1212 = !{!62, !1129, !1190, !231}
!1213 = !DIImportedEntity(tag: DW_TAG_imported_declaration, scope: !6, entity: !1214, line: 150)
!1214 = !DISubprogram(name: "wcstoull", scope: !1126, file: !1126, line: 182, type: !1215, isLocal: false, isDefinition: false, flags: DIFlagPrototyped, isOptimized: false)
!1215 = !DISubroutineType(types: !1216)
!1216 = !{!1217, !1129, !1190, !231}
!1217 = !DIBasicType(name: "long long unsigned int", size: 64, align: 64, encoding: DW_ATE_unsigned)
!1218 = !DIImportedEntity(tag: DW_TAG_imported_declaration, scope: !6, entity: !1219, line: 152)
!1219 = !DISubprogram(name: "wcscpy", scope: !1126, file: !1126, line: 128, type: !1220, isLocal: false, isDefinition: false, flags: DIFlagPrototyped, isOptimized: false)
!1220 = !DISubroutineType(types: !1221)
!1221 = !{!1138, !1138, !1129}
!1222 = !DIImportedEntity(tag: DW_TAG_imported_declaration, scope: !6, entity: !1223, line: 153)
!1223 = !DISubprogram(name: "wcsncpy", scope: !1126, file: !1126, line: 135, type: !1224, isLocal: false, isDefinition: false, flags: DIFlagPrototyped, isOptimized: false)
!1224 = !DISubroutineType(types: !1225)
!1225 = !{!1138, !1138, !1129, !58}
!1226 = !DIImportedEntity(tag: DW_TAG_imported_declaration, scope: !6, entity: !1227, line: 154)
!1227 = !DISubprogram(name: "wcscat", scope: !1126, file: !1126, line: 124, type: !1220, isLocal: false, isDefinition: false, flags: DIFlagPrototyped, isOptimized: false)
!1228 = !DIImportedEntity(tag: DW_TAG_imported_declaration, scope: !6, entity: !1229, line: 155)
!1229 = !DISubprogram(name: "wcsncat", scope: !1126, file: !1126, line: 133, type: !1224, isLocal: false, isDefinition: false, flags: DIFlagPrototyped, isOptimized: false)
!1230 = !DIImportedEntity(tag: DW_TAG_imported_declaration, scope: !6, entity: !1231, line: 156)
!1231 = !DISubprogram(name: "wcscmp", scope: !1126, file: !1126, line: 126, type: !1232, isLocal: false, isDefinition: false, flags: DIFlagPrototyped, isOptimized: false)
!1232 = !DISubroutineType(types: !1233)
!1233 = !{!231, !1129, !1129}
!1234 = !DIImportedEntity(tag: DW_TAG_imported_declaration, scope: !6, entity: !1235, line: 157)
!1235 = !DISubprogram(name: "wcscoll", scope: !1126, file: !1126, line: 127, type: !1232, isLocal: false, isDefinition: false, flags: DIFlagPrototyped, isOptimized: false)
!1236 = !DIImportedEntity(tag: DW_TAG_imported_declaration, scope: !6, entity: !1237, line: 158)
!1237 = !DISubprogram(name: "wcsncmp", scope: !1126, file: !1126, line: 134, type: !1238, isLocal: false, isDefinition: false, flags: DIFlagPrototyped, isOptimized: false)
!1238 = !DISubroutineType(types: !1239)
!1239 = !{!231, !1129, !1129, !58}
!1240 = !DIImportedEntity(tag: DW_TAG_imported_declaration, scope: !6, entity: !1241, line: 159)
!1241 = !DISubprogram(name: "wcsxfrm", scope: !1126, file: !1126, line: 142, type: !1242, isLocal: false, isDefinition: false, flags: DIFlagPrototyped, isOptimized: false)
!1242 = !DISubroutineType(types: !1243)
!1243 = !{!58, !1138, !1129, !58}
!1244 = !DIImportedEntity(tag: DW_TAG_imported_declaration, scope: !6, entity: !1245, line: 160)
!1245 = !DISubprogram(name: "wcschr", linkageName: "_Z6wcschrUa9enable_ifIXLb1EEEPww", scope: !1246, file: !1246, line: 137, type: !1247, isLocal: false, isDefinition: false, flags: DIFlagPrototyped, isOptimized: false)
!1246 = !DIFile(filename: "/usr/local/Cellar/llvm@3.9/3.9.1/bin/../include/c++/v1/wchar.h", directory: "/usr/local/mull/mull/lab/simple_test/mutation_operators/and_or_replacement_cpp")
!1247 = !DISubroutineType(types: !1248)
!1248 = !{!1138, !1138, !1131}
!1249 = !DIImportedEntity(tag: DW_TAG_imported_declaration, scope: !6, entity: !1250, line: 161)
!1250 = !DISubprogram(name: "wcspbrk", linkageName: "_Z7wcspbrkUa9enable_ifIXLb1EEEPwPKw", scope: !1246, file: !1246, line: 144, type: !1220, isLocal: false, isDefinition: false, flags: DIFlagPrototyped, isOptimized: false)
!1251 = !DIImportedEntity(tag: DW_TAG_imported_declaration, scope: !6, entity: !1252, line: 162)
!1252 = !DISubprogram(name: "wcsrchr", linkageName: "_Z7wcsrchrUa9enable_ifIXLb1EEEPww", scope: !1246, file: !1246, line: 151, type: !1247, isLocal: false, isDefinition: false, flags: DIFlagPrototyped, isOptimized: false)
!1253 = !DIImportedEntity(tag: DW_TAG_imported_declaration, scope: !6, entity: !1254, line: 163)
!1254 = !DISubprogram(name: "wcsstr", linkageName: "_Z6wcsstrUa9enable_ifIXLb1EEEPwPKw", scope: !1246, file: !1246, line: 158, type: !1220, isLocal: false, isDefinition: false, flags: DIFlagPrototyped, isOptimized: false)
!1255 = !DIImportedEntity(tag: DW_TAG_imported_declaration, scope: !6, entity: !1256, line: 164)
!1256 = !DISubprogram(name: "wmemchr", linkageName: "_Z7wmemchrUa9enable_ifIXLb1EEEPwwm", scope: !1246, file: !1246, line: 165, type: !1257, isLocal: false, isDefinition: false, flags: DIFlagPrototyped, isOptimized: false)
!1257 = !DISubroutineType(types: !1258)
!1258 = !{!1138, !1138, !1131, !58}
!1259 = !DIImportedEntity(tag: DW_TAG_imported_declaration, scope: !6, entity: !1260, line: 165)
!1260 = !DISubprogram(name: "wcscspn", scope: !1126, file: !1126, line: 129, type: !1261, isLocal: false, isDefinition: false, flags: DIFlagPrototyped, isOptimized: false)
!1261 = !DISubroutineType(types: !1262)
!1262 = !{!58, !1129, !1129}
!1263 = !DIImportedEntity(tag: DW_TAG_imported_declaration, scope: !6, entity: !1264, line: 166)
!1264 = !DISubprogram(name: "wcslen", scope: !1126, file: !1126, line: 132, type: !1265, isLocal: false, isDefinition: false, flags: DIFlagPrototyped, isOptimized: false)
!1265 = !DISubroutineType(types: !1266)
!1266 = !{!58, !1129}
!1267 = !DIImportedEntity(tag: DW_TAG_imported_declaration, scope: !6, entity: !1268, line: 167)
!1268 = !DISubprogram(name: "wcsspn", scope: !1126, file: !1126, line: 140, type: !1261, isLocal: false, isDefinition: false, flags: DIFlagPrototyped, isOptimized: false)
!1269 = !DIImportedEntity(tag: DW_TAG_imported_declaration, scope: !6, entity: !1270, line: 168)
!1270 = !DISubprogram(name: "wcstok", scope: !1126, file: !1126, line: 145, type: !1271, isLocal: false, isDefinition: false, flags: DIFlagPrototyped, isOptimized: false)
!1271 = !DISubroutineType(types: !1272)
!1272 = !{!1138, !1138, !1129, !1190}
!1273 = !DIImportedEntity(tag: DW_TAG_imported_declaration, scope: !6, entity: !1274, line: 169)
!1274 = !DISubprogram(name: "wmemcmp", scope: !1126, file: !1126, line: 151, type: !1238, isLocal: false, isDefinition: false, flags: DIFlagPrototyped, isOptimized: false)
!1275 = !DIImportedEntity(tag: DW_TAG_imported_declaration, scope: !6, entity: !1276, line: 170)
!1276 = !DISubprogram(name: "wmemcpy", scope: !1126, file: !1126, line: 152, type: !1224, isLocal: false, isDefinition: false, flags: DIFlagPrototyped, isOptimized: false)
!1277 = !DIImportedEntity(tag: DW_TAG_imported_declaration, scope: !6, entity: !1278, line: 171)
!1278 = !DISubprogram(name: "wmemmove", scope: !1126, file: !1126, line: 153, type: !1224, isLocal: false, isDefinition: false, flags: DIFlagPrototyped, isOptimized: false)
!1279 = !DIImportedEntity(tag: DW_TAG_imported_declaration, scope: !6, entity: !1280, line: 172)
!1280 = !DISubprogram(name: "wmemset", scope: !1126, file: !1126, line: 154, type: !1257, isLocal: false, isDefinition: false, flags: DIFlagPrototyped, isOptimized: false)
!1281 = !DIImportedEntity(tag: DW_TAG_imported_declaration, scope: !6, entity: !1282, line: 173)
!1282 = !DISubprogram(name: "wcsftime", linkageName: "\01_wcsftime", scope: !1126, file: !1126, line: 130, type: !1283, isLocal: false, isDefinition: false, flags: DIFlagPrototyped, isOptimized: false)
!1283 = !DISubroutineType(types: !1284)
!1284 = !{!58, !1138, !58, !1129, !1285}
!1285 = !DIDerivedType(tag: DW_TAG_pointer_type, baseType: !1286, size: 64, align: 64)
!1286 = !DIDerivedType(tag: DW_TAG_const_type, baseType: !1108)
!1287 = !DIImportedEntity(tag: DW_TAG_imported_declaration, scope: !6, entity: !1288, line: 174)
!1288 = !DISubprogram(name: "btowc", scope: !1126, file: !1126, line: 97, type: !1289, isLocal: false, isDefinition: false, flags: DIFlagPrototyped, isOptimized: false)
!1289 = !DISubroutineType(types: !1290)
!1290 = !{!1031, !231}
!1291 = !DIImportedEntity(tag: DW_TAG_imported_declaration, scope: !6, entity: !1292, line: 175)
!1292 = !DISubprogram(name: "wctob", scope: !1126, file: !1126, line: 143, type: !1047, isLocal: false, isDefinition: false, flags: DIFlagPrototyped, isOptimized: false)
!1293 = !DIImportedEntity(tag: DW_TAG_imported_declaration, scope: !6, entity: !1294, line: 176)
!1294 = !DISubprogram(name: "mbsinit", scope: !1126, file: !1126, line: 110, type: !1295, isLocal: false, isDefinition: false, flags: DIFlagPrototyped, isOptimized: false)
!1295 = !DISubroutineType(types: !1296)
!1296 = !{!231, !1297}
!1297 = !DIDerivedType(tag: DW_TAG_pointer_type, baseType: !1298, size: 64, align: 64)
!1298 = !DIDerivedType(tag: DW_TAG_const_type, baseType: !1095)
!1299 = !DIImportedEntity(tag: DW_TAG_imported_declaration, scope: !6, entity: !1300, line: 177)
!1300 = !DISubprogram(name: "mbrlen", scope: !1126, file: !1126, line: 107, type: !1301, isLocal: false, isDefinition: false, flags: DIFlagPrototyped, isOptimized: false)
!1301 = !DISubroutineType(types: !1302)
!1302 = !{!58, !50, !58, !1303}
!1303 = !DIDerivedType(tag: DW_TAG_pointer_type, baseType: !1095, size: 64, align: 64)
!1304 = !DIImportedEntity(tag: DW_TAG_imported_declaration, scope: !6, entity: !1305, line: 178)
!1305 = !DISubprogram(name: "mbrtowc", scope: !1126, file: !1126, line: 108, type: !1306, isLocal: false, isDefinition: false, flags: DIFlagPrototyped, isOptimized: false)
!1306 = !DISubroutineType(types: !1307)
!1307 = !{!58, !1138, !50, !58, !1303}
!1308 = !DIImportedEntity(tag: DW_TAG_imported_declaration, scope: !6, entity: !1309, line: 179)
!1309 = !DISubprogram(name: "wcrtomb", scope: !1126, file: !1126, line: 123, type: !1310, isLocal: false, isDefinition: false, flags: DIFlagPrototyped, isOptimized: false)
!1310 = !DISubroutineType(types: !1311)
!1311 = !{!58, !40, !1131, !1303}
!1312 = !DIImportedEntity(tag: DW_TAG_imported_declaration, scope: !6, entity: !1313, line: 180)
!1313 = !DISubprogram(name: "mbsrtowcs", scope: !1126, file: !1126, line: 111, type: !1314, isLocal: false, isDefinition: false, flags: DIFlagPrototyped, isOptimized: false)
!1314 = !DISubroutineType(types: !1315)
!1315 = !{!58, !1138, !1316, !58, !1303}
!1316 = !DIDerivedType(tag: DW_TAG_pointer_type, baseType: !50, size: 64, align: 64)
!1317 = !DIImportedEntity(tag: DW_TAG_imported_declaration, scope: !6, entity: !1318, line: 181)
!1318 = !DISubprogram(name: "wcsrtombs", scope: !1126, file: !1126, line: 138, type: !1319, isLocal: false, isDefinition: false, flags: DIFlagPrototyped, isOptimized: false)
!1319 = !DISubroutineType(types: !1320)
!1320 = !{!58, !40, !1321, !58, !1303}
!1321 = !DIDerivedType(tag: DW_TAG_pointer_type, baseType: !1129, size: 64, align: 64)
!1322 = !DIImportedEntity(tag: DW_TAG_imported_declaration, scope: !6, entity: !1323, line: 184)
!1323 = !DISubprogram(name: "getwchar", scope: !1126, file: !1126, line: 106, type: !1324, isLocal: false, isDefinition: false, flags: DIFlagPrototyped, isOptimized: false)
!1324 = !DISubroutineType(types: !1325)
!1325 = !{!1031}
!1326 = !DIImportedEntity(tag: DW_TAG_imported_declaration, scope: !6, entity: !1327, line: 186)
!1327 = !DISubprogram(name: "vwscanf", scope: !1126, file: !1126, line: 174, type: !1328, isLocal: false, isDefinition: false, flags: DIFlagPrototyped, isOptimized: false)
!1328 = !DISubroutineType(types: !1329)
!1329 = !{!231, !1129, !873}
!1330 = !DIImportedEntity(tag: DW_TAG_imported_declaration, scope: !6, entity: !1331, line: 188)
!1331 = !DISubprogram(name: "wscanf", scope: !1126, file: !1126, line: 156, type: !1332, isLocal: false, isDefinition: false, flags: DIFlagPrototyped, isOptimized: false)
!1332 = !DISubroutineType(types: !1333)
!1333 = !{!231, !1129, null}
!1334 = !DIImportedEntity(tag: DW_TAG_imported_declaration, scope: !6, entity: !1335, line: 192)
!1335 = !DISubprogram(name: "putwchar", scope: !1126, file: !1126, line: 114, type: !1336, isLocal: false, isDefinition: false, flags: DIFlagPrototyped, isOptimized: false)
!1336 = !DISubroutineType(types: !1337)
!1337 = !{!1031, !1131}
!1338 = !DIImportedEntity(tag: DW_TAG_imported_declaration, scope: !6, entity: !1339, line: 193)
!1339 = !DISubprogram(name: "vwprintf", scope: !1126, file: !1126, line: 122, type: !1328, isLocal: false, isDefinition: false, flags: DIFlagPrototyped, isOptimized: false)
!1340 = !DIImportedEntity(tag: DW_TAG_imported_declaration, scope: !6, entity: !1341, line: 194)
!1341 = !DISubprogram(name: "wprintf", scope: !1126, file: !1126, line: 155, type: !1332, isLocal: false, isDefinition: false, flags: DIFlagPrototyped, isOptimized: false)
!1342 = !DIImportedEntity(tag: DW_TAG_imported_declaration, scope: !6, entity: !1343, line: 48)
!1343 = !DIDerivedType(tag: DW_TAG_typedef, name: "ptrdiff_t", file: !1344, line: 51, baseType: !200)
!1344 = !DIFile(filename: "/usr/local/Cellar/llvm@3.9/3.9.1/bin/../lib/clang/3.9.1/include/stddef.h", directory: "/usr/local/mull/mull/lab/simple_test/mutation_operators/and_or_replacement_cpp")
!1345 = !DIImportedEntity(tag: DW_TAG_imported_declaration, scope: !6, entity: !58, line: 49)
!1346 = !DIImportedEntity(tag: DW_TAG_imported_declaration, scope: !6, entity: !1347, line: 153)
!1347 = !DIDerivedType(tag: DW_TAG_typedef, name: "int8_t", file: !1348, line: 30, baseType: !1349)
!1348 = !DIFile(filename: "/usr/include/sys/_types/_int8_t.h", directory: "/usr/local/mull/mull/lab/simple_test/mutation_operators/and_or_replacement_cpp")
!1349 = !DIBasicType(name: "signed char", size: 8, align: 8, encoding: DW_ATE_signed_char)
!1350 = !DIImportedEntity(tag: DW_TAG_imported_declaration, scope: !6, entity: !1351, line: 154)
!1351 = !DIDerivedType(tag: DW_TAG_typedef, name: "int16_t", file: !1352, line: 30, baseType: !790)
!1352 = !DIFile(filename: "/usr/include/sys/_types/_int16_t.h", directory: "/usr/local/mull/mull/lab/simple_test/mutation_operators/and_or_replacement_cpp")
!1353 = !DIImportedEntity(tag: DW_TAG_imported_declaration, scope: !6, entity: !1354, line: 155)
!1354 = !DIDerivedType(tag: DW_TAG_typedef, name: "int32_t", file: !1355, line: 30, baseType: !231)
!1355 = !DIFile(filename: "/usr/include/sys/_types/_int32_t.h", directory: "/usr/local/mull/mull/lab/simple_test/mutation_operators/and_or_replacement_cpp")
!1356 = !DIImportedEntity(tag: DW_TAG_imported_declaration, scope: !6, entity: !1357, line: 156)
!1357 = !DIDerivedType(tag: DW_TAG_typedef, name: "int64_t", file: !1358, line: 30, baseType: !815)
!1358 = !DIFile(filename: "/usr/include/sys/_types/_int64_t.h", directory: "/usr/local/mull/mull/lab/simple_test/mutation_operators/and_or_replacement_cpp")
!1359 = !DIImportedEntity(tag: DW_TAG_imported_declaration, scope: !6, entity: !1360, line: 158)
!1360 = !DIDerivedType(tag: DW_TAG_typedef, name: "uint8_t", file: !1361, line: 31, baseType: !212)
!1361 = !DIFile(filename: "/usr/include/_types/_uint8_t.h", directory: "/usr/local/mull/mull/lab/simple_test/mutation_operators/and_or_replacement_cpp")
!1362 = !DIImportedEntity(tag: DW_TAG_imported_declaration, scope: !6, entity: !1363, line: 159)
!1363 = !DIDerivedType(tag: DW_TAG_typedef, name: "uint16_t", file: !1364, line: 31, baseType: !1365)
